
LWM_MSSY.elf:     file format elf32-avr

Sections:
Idx Name          Size      VMA       LMA       File off  Algn
  0 .data         00000090  00800200  00001d5a  00001dee  2**0
                  CONTENTS, ALLOC, LOAD, DATA
  1 .text         00001d5a  00000000  00000000  00000094  2**1
                  CONTENTS, ALLOC, LOAD, READONLY, CODE
  2 .bss          00001d90  00800290  00800290  00001e7e  2**0
                  ALLOC
  3 .comment      00000030  00000000  00000000  00001e7e  2**0
                  CONTENTS, READONLY
  4 .note.gnu.avr.deviceinfo 00000040  00000000  00000000  00001eb0  2**2
                  CONTENTS, READONLY
  5 .debug_aranges 00000448  00000000  00000000  00001ef0  2**0
                  CONTENTS, READONLY, DEBUGGING
  6 .debug_info   00006733  00000000  00000000  00002338  2**0
                  CONTENTS, READONLY, DEBUGGING
  7 .debug_abbrev 00002d22  00000000  00000000  00008a6b  2**0
                  CONTENTS, READONLY, DEBUGGING
  8 .debug_line   000027c6  00000000  00000000  0000b78d  2**0
                  CONTENTS, READONLY, DEBUGGING
  9 .debug_frame  00000a24  00000000  00000000  0000df54  2**2
                  CONTENTS, READONLY, DEBUGGING
 10 .debug_str    0000201e  00000000  00000000  0000e978  2**0
                  CONTENTS, READONLY, DEBUGGING
 11 .debug_loc    0000264e  00000000  00000000  00010996  2**0
                  CONTENTS, READONLY, DEBUGGING
 12 .debug_ranges 00000488  00000000  00000000  00012fe4  2**0
                  CONTENTS, READONLY, DEBUGGING

Disassembly of section .text:

00000000 <__vectors>:
       0:	a0 c0       	rjmp	.+320    	; 0x142 <__ctors_end>
       2:	00 00       	nop
       4:	be c0       	rjmp	.+380    	; 0x182 <__bad_interrupt>
       6:	00 00       	nop
       8:	bc c0       	rjmp	.+376    	; 0x182 <__bad_interrupt>
       a:	00 00       	nop
       c:	ba c0       	rjmp	.+372    	; 0x182 <__bad_interrupt>
       e:	00 00       	nop
      10:	b8 c0       	rjmp	.+368    	; 0x182 <__bad_interrupt>
      12:	00 00       	nop
      14:	b6 c0       	rjmp	.+364    	; 0x182 <__bad_interrupt>
      16:	00 00       	nop
      18:	b4 c0       	rjmp	.+360    	; 0x182 <__bad_interrupt>
      1a:	00 00       	nop
      1c:	b2 c0       	rjmp	.+356    	; 0x182 <__bad_interrupt>
      1e:	00 00       	nop
      20:	b0 c0       	rjmp	.+352    	; 0x182 <__bad_interrupt>
      22:	00 00       	nop
      24:	ae c0       	rjmp	.+348    	; 0x182 <__bad_interrupt>
      26:	00 00       	nop
      28:	ac c0       	rjmp	.+344    	; 0x182 <__bad_interrupt>
      2a:	00 00       	nop
      2c:	aa c0       	rjmp	.+340    	; 0x182 <__bad_interrupt>
      2e:	00 00       	nop
      30:	a8 c0       	rjmp	.+336    	; 0x182 <__bad_interrupt>
      32:	00 00       	nop
      34:	66 c2       	rjmp	.+1228   	; 0x502 <__vector_13>
      36:	00 00       	nop
      38:	a4 c0       	rjmp	.+328    	; 0x182 <__bad_interrupt>
      3a:	00 00       	nop
      3c:	a2 c0       	rjmp	.+324    	; 0x182 <__bad_interrupt>
      3e:	00 00       	nop
      40:	a0 c0       	rjmp	.+320    	; 0x182 <__bad_interrupt>
      42:	00 00       	nop
      44:	9e c0       	rjmp	.+316    	; 0x182 <__bad_interrupt>
      46:	00 00       	nop
      48:	9c c0       	rjmp	.+312    	; 0x182 <__bad_interrupt>
      4a:	00 00       	nop
      4c:	9a c0       	rjmp	.+308    	; 0x182 <__bad_interrupt>
      4e:	00 00       	nop
      50:	98 c0       	rjmp	.+304    	; 0x182 <__bad_interrupt>
      52:	00 00       	nop
      54:	96 c0       	rjmp	.+300    	; 0x182 <__bad_interrupt>
      56:	00 00       	nop
      58:	94 c0       	rjmp	.+296    	; 0x182 <__bad_interrupt>
      5a:	00 00       	nop
      5c:	92 c0       	rjmp	.+292    	; 0x182 <__bad_interrupt>
      5e:	00 00       	nop
      60:	90 c0       	rjmp	.+288    	; 0x182 <__bad_interrupt>
      62:	00 00       	nop
      64:	8e c0       	rjmp	.+284    	; 0x182 <__bad_interrupt>
      66:	00 00       	nop
      68:	8c c0       	rjmp	.+280    	; 0x182 <__bad_interrupt>
      6a:	00 00       	nop
      6c:	8a c0       	rjmp	.+276    	; 0x182 <__bad_interrupt>
      6e:	00 00       	nop
      70:	88 c0       	rjmp	.+272    	; 0x182 <__bad_interrupt>
      72:	00 00       	nop
      74:	86 c0       	rjmp	.+268    	; 0x182 <__bad_interrupt>
      76:	00 00       	nop
      78:	84 c0       	rjmp	.+264    	; 0x182 <__bad_interrupt>
      7a:	00 00       	nop
      7c:	82 c0       	rjmp	.+260    	; 0x182 <__bad_interrupt>
      7e:	00 00       	nop
      80:	80 c0       	rjmp	.+256    	; 0x182 <__bad_interrupt>
      82:	00 00       	nop
      84:	7e c0       	rjmp	.+252    	; 0x182 <__bad_interrupt>
      86:	00 00       	nop
      88:	7c c0       	rjmp	.+248    	; 0x182 <__bad_interrupt>
      8a:	00 00       	nop
      8c:	7a c0       	rjmp	.+244    	; 0x182 <__bad_interrupt>
      8e:	00 00       	nop
      90:	ed c2       	rjmp	.+1498   	; 0x66c <__vector_36>
      92:	00 00       	nop
      94:	cf c2       	rjmp	.+1438   	; 0x634 <__vector_37>
      96:	00 00       	nop
      98:	74 c0       	rjmp	.+232    	; 0x182 <__bad_interrupt>
      9a:	00 00       	nop
      9c:	72 c0       	rjmp	.+228    	; 0x182 <__bad_interrupt>
      9e:	00 00       	nop
      a0:	70 c0       	rjmp	.+224    	; 0x182 <__bad_interrupt>
      a2:	00 00       	nop
      a4:	6e c0       	rjmp	.+220    	; 0x182 <__bad_interrupt>
      a6:	00 00       	nop
      a8:	1b c2       	rjmp	.+1078   	; 0x4e0 <__vector_42>
      aa:	00 00       	nop
      ac:	6a c0       	rjmp	.+212    	; 0x182 <__bad_interrupt>
      ae:	00 00       	nop
      b0:	68 c0       	rjmp	.+208    	; 0x182 <__bad_interrupt>
      b2:	00 00       	nop
      b4:	66 c0       	rjmp	.+204    	; 0x182 <__bad_interrupt>
      b6:	00 00       	nop
      b8:	64 c0       	rjmp	.+200    	; 0x182 <__bad_interrupt>
      ba:	00 00       	nop
      bc:	62 c0       	rjmp	.+196    	; 0x182 <__bad_interrupt>
      be:	00 00       	nop
      c0:	60 c0       	rjmp	.+192    	; 0x182 <__bad_interrupt>
      c2:	00 00       	nop
      c4:	5e c0       	rjmp	.+188    	; 0x182 <__bad_interrupt>
      c6:	00 00       	nop
      c8:	5c c0       	rjmp	.+184    	; 0x182 <__bad_interrupt>
      ca:	00 00       	nop
      cc:	5a c0       	rjmp	.+180    	; 0x182 <__bad_interrupt>
      ce:	00 00       	nop
      d0:	58 c0       	rjmp	.+176    	; 0x182 <__bad_interrupt>
      d2:	00 00       	nop
      d4:	56 c0       	rjmp	.+172    	; 0x182 <__bad_interrupt>
      d6:	00 00       	nop
      d8:	54 c0       	rjmp	.+168    	; 0x182 <__bad_interrupt>
      da:	00 00       	nop
      dc:	52 c0       	rjmp	.+164    	; 0x182 <__bad_interrupt>
      de:	00 00       	nop
      e0:	50 c0       	rjmp	.+160    	; 0x182 <__bad_interrupt>
      e2:	00 00       	nop
      e4:	4e c0       	rjmp	.+156    	; 0x182 <__bad_interrupt>
      e6:	00 00       	nop
      e8:	4c c0       	rjmp	.+152    	; 0x182 <__bad_interrupt>
      ea:	00 00       	nop
      ec:	4a c0       	rjmp	.+148    	; 0x182 <__bad_interrupt>
      ee:	00 00       	nop
      f0:	48 c0       	rjmp	.+144    	; 0x182 <__bad_interrupt>
      f2:	00 00       	nop
      f4:	46 c0       	rjmp	.+140    	; 0x182 <__bad_interrupt>
      f6:	00 00       	nop
      f8:	44 c0       	rjmp	.+136    	; 0x182 <__bad_interrupt>
      fa:	00 00       	nop
      fc:	42 c0       	rjmp	.+132    	; 0x182 <__bad_interrupt>
      fe:	00 00       	nop
     100:	40 c0       	rjmp	.+128    	; 0x182 <__bad_interrupt>
     102:	00 00       	nop
     104:	3e c0       	rjmp	.+124    	; 0x182 <__bad_interrupt>
     106:	00 00       	nop
     108:	3c c0       	rjmp	.+120    	; 0x182 <__bad_interrupt>
     10a:	00 00       	nop
     10c:	3a c0       	rjmp	.+116    	; 0x182 <__bad_interrupt>
     10e:	00 00       	nop
     110:	38 c0       	rjmp	.+112    	; 0x182 <__bad_interrupt>
     112:	00 00       	nop
     114:	36 c0       	rjmp	.+108    	; 0x182 <__bad_interrupt>
     116:	00 00       	nop
     118:	34 c0       	rjmp	.+104    	; 0x182 <__bad_interrupt>
     11a:	00 00       	nop
     11c:	32 c0       	rjmp	.+100    	; 0x182 <__bad_interrupt>
     11e:	00 00       	nop
     120:	30 c0       	rjmp	.+96     	; 0x182 <__bad_interrupt>
     122:	00 00       	nop
     124:	2e c0       	rjmp	.+92     	; 0x182 <__bad_interrupt>
     126:	00 00       	nop
     128:	2c c0       	rjmp	.+88     	; 0x182 <__bad_interrupt>
     12a:	00 00       	nop
     12c:	2a c0       	rjmp	.+84     	; 0x182 <__bad_interrupt>
     12e:	00 00       	nop
     130:	28 c0       	rjmp	.+80     	; 0x182 <__bad_interrupt>
     132:	00 00       	nop
     134:	c0 01       	movw	r24, r0
     136:	97 01       	movw	r18, r14
     138:	97 01       	movw	r18, r14
     13a:	a6 01       	movw	r20, r12
     13c:	7a 01       	movw	r14, r20
     13e:	89 01       	movw	r16, r18
     140:	54 01       	movw	r10, r8

00000142 <__ctors_end>:
     142:	11 24       	eor	r1, r1
     144:	1f be       	out	0x3f, r1	; 63
     146:	cf ef       	ldi	r28, 0xFF	; 255
     148:	d1 e8       	ldi	r29, 0x81	; 129
     14a:	de bf       	out	0x3e, r29	; 62
     14c:	cd bf       	out	0x3d, r28	; 61
     14e:	00 e0       	ldi	r16, 0x00	; 0
     150:	0c bf       	out	0x3c, r16	; 60

00000152 <__do_copy_data>:
     152:	12 e0       	ldi	r17, 0x02	; 2
     154:	a0 e0       	ldi	r26, 0x00	; 0
     156:	b2 e0       	ldi	r27, 0x02	; 2
     158:	ea e5       	ldi	r30, 0x5A	; 90
     15a:	fd e1       	ldi	r31, 0x1D	; 29
     15c:	00 e0       	ldi	r16, 0x00	; 0
     15e:	0b bf       	out	0x3b, r16	; 59
     160:	02 c0       	rjmp	.+4      	; 0x166 <__do_copy_data+0x14>
     162:	07 90       	elpm	r0, Z+
     164:	0d 92       	st	X+, r0
     166:	a0 39       	cpi	r26, 0x90	; 144
     168:	b1 07       	cpc	r27, r17
     16a:	d9 f7       	brne	.-10     	; 0x162 <__do_copy_data+0x10>

0000016c <__do_clear_bss>:
     16c:	20 e2       	ldi	r18, 0x20	; 32
     16e:	a0 e9       	ldi	r26, 0x90	; 144
     170:	b2 e0       	ldi	r27, 0x02	; 2
     172:	01 c0       	rjmp	.+2      	; 0x176 <.do_clear_bss_start>

00000174 <.do_clear_bss_loop>:
     174:	1d 92       	st	X+, r1

00000176 <.do_clear_bss_start>:
     176:	a0 32       	cpi	r26, 0x20	; 32
     178:	b2 07       	cpc	r27, r18
     17a:	e1 f7       	brne	.-8      	; 0x174 <.do_clear_bss_loop>
     17c:	75 d1       	rcall	.+746    	; 0x468 <main>
     17e:	0c 94 ab 0e 	jmp	0x1d56	; 0x1d56 <_exit>

00000182 <__bad_interrupt>:
     182:	3e cf       	rjmp	.-388    	; 0x0 <__vectors>

00000184 <APP_dataConf>:
}

void APP_timerHandler(SYS_Timer_t *timer) {
  char test[] = "SYSLOG: timer is being reset";
  for (int i = 0; strlen(test); i++) {
    HAL_UartWriteByte(test[i]);
     184:	08 95       	ret

00000186 <HAL_UartBytesReceived>:
static uint8_t routeTablePtr = 0;
static uint16_t meAddr = APP_ADDR;
static uint16_t meEndpoint = APP_ENDPOINT;
static char *test = "test";

void HAL_UartBytesReceived(uint16_t bytes) { HAL_UartWriteString(bytes); }
     186:	48 c2       	rjmp	.+1168   	; 0x618 <HAL_UartWriteString>
     188:	08 95       	ret

0000018a <APP_dataSend>:

void APP_dataSend(AppMsgType_t msgType, uint8_t addr) {
  RouteTable_t route = routeTable[addr];
     18a:	26 2f       	mov	r18, r22
     18c:	30 e0       	ldi	r19, 0x00	; 0
     18e:	f9 01       	movw	r30, r18
     190:	ee 0f       	add	r30, r30
     192:	ff 1f       	adc	r31, r31
     194:	e2 0f       	add	r30, r18
     196:	f3 1f       	adc	r31, r19
     198:	ee 0f       	add	r30, r30
     19a:	ff 1f       	adc	r31, r31
     19c:	ef 56       	subi	r30, 0x6F	; 111
     19e:	fd 4f       	sbci	r31, 0xFD	; 253
     1a0:	92 81       	ldd	r25, Z+2	; 0x02
  dataReq.data->msgType = msgType;
     1a2:	e0 91 08 09 	lds	r30, 0x0908	; 0x800908 <dataReq+0xa>
     1a6:	f0 91 09 09 	lds	r31, 0x0909	; 0x800909 <dataReq+0xb>
     1aa:	81 83       	std	Z+1, r24	; 0x01
  switch (msgType) {
     1ac:	87 30       	cpi	r24, 0x07	; 7
     1ae:	61 f0       	breq	.+24     	; 0x1c8 <APP_dataSend+0x3e>
     1b0:	89 30       	cpi	r24, 0x09	; 9
     1b2:	91 f4       	brne	.+36     	; 0x1d8 <APP_dataSend+0x4e>
  case OFFER:
    dataReq.data->data = routeTablePtr;
     1b4:	e0 91 08 09 	lds	r30, 0x0908	; 0x800908 <dataReq+0xa>
     1b8:	f0 91 09 09 	lds	r31, 0x0909	; 0x800909 <dataReq+0xb>
     1bc:	20 91 90 02 	lds	r18, 0x0290	; 0x800290 <__data_end>
     1c0:	30 e0       	ldi	r19, 0x00	; 0
     1c2:	34 83       	std	Z+4, r19	; 0x04
     1c4:	23 83       	std	Z+3, r18	; 0x03
    break;
     1c6:	08 c0       	rjmp	.+16     	; 0x1d8 <APP_dataSend+0x4e>
  case APPDATA:
    dataReq.data->data = test;
     1c8:	e0 91 08 09 	lds	r30, 0x0908	; 0x800908 <dataReq+0xa>
     1cc:	f0 91 09 09 	lds	r31, 0x0909	; 0x800909 <dataReq+0xb>
     1d0:	21 e2       	ldi	r18, 0x21	; 33
     1d2:	32 e0       	ldi	r19, 0x02	; 2
     1d4:	34 83       	std	Z+4, r19	; 0x04
     1d6:	23 83       	std	Z+3, r18	; 0x03
    break;
  }
  dataReq.size = sizeof(dataReq.data) + sizeof(dataReq.data->data) + 2;
     1d8:	ee ef       	ldi	r30, 0xFE	; 254
     1da:	f8 e0       	ldi	r31, 0x08	; 8
     1dc:	86 e0       	ldi	r24, 0x06	; 6
     1de:	84 87       	std	Z+12, r24	; 0x0c

#if DESIGNATION == 1 // client
  dataReq.dstAddr = 00;
  dataReq.dstEndpoint = meEndpoint;
#else
  dataReq.dstAddr = addr;
     1e0:	70 e0       	ldi	r23, 0x00	; 0
     1e2:	76 83       	std	Z+6, r23	; 0x06
     1e4:	65 83       	std	Z+5, r22	; 0x05
  dataReq.dstEndpoint = route.endpoint;
     1e6:	97 83       	std	Z+7, r25	; 0x07
#endif
  dataReq.srcEndpoint = meEndpoint;
     1e8:	83 e0       	ldi	r24, 0x03	; 3
     1ea:	80 87       	std	Z+8, r24	; 0x08
  dataReq.options = NWK_OPT_ENABLE_SECURITY;
     1ec:	82 e0       	ldi	r24, 0x02	; 2
     1ee:	81 87       	std	Z+9, r24	; 0x09
  dataReq.confirm = APP_dataConf;
     1f0:	82 ec       	ldi	r24, 0xC2	; 194
     1f2:	90 e0       	ldi	r25, 0x00	; 0
     1f4:	96 87       	std	Z+14, r25	; 0x0e
     1f6:	85 87       	std	Z+13, r24	; 0x0d
  NWK_DataReq(&dataReq);
     1f8:	cf 01       	movw	r24, r30
     1fa:	2c c3       	rjmp	.+1624   	; 0x854 <NWK_DataReq>
     1fc:	08 95       	ret

000001fe <APP_pushAddr>:
 * Should only be called when the server offers the config,
 * on accept from client, the in_use flag needs to be set,
 * otherwise the server will rewrite the entry on next pass.
 * The route table has 65535 entries
 */
uint16_t APP_pushAddr(uint8_t endpoint, uint8_t *data) {
     1fe:	cf 93       	push	r28
     200:	df 93       	push	r29
     202:	48 2f       	mov	r20, r24
  if (routeTable[routeTablePtr].in_use) {
     204:	90 91 90 02 	lds	r25, 0x0290	; 0x800290 <__data_end>
     208:	29 2f       	mov	r18, r25
     20a:	30 e0       	ldi	r19, 0x00	; 0
     20c:	f9 01       	movw	r30, r18
     20e:	ee 0f       	add	r30, r30
     210:	ff 1f       	adc	r31, r31
     212:	e2 0f       	add	r30, r18
     214:	f3 1f       	adc	r31, r19
     216:	ee 0f       	add	r30, r30
     218:	ff 1f       	adc	r31, r31
     21a:	ef 56       	subi	r30, 0x6F	; 111
     21c:	fd 4f       	sbci	r31, 0xFD	; 253
     21e:	85 81       	ldd	r24, Z+5	; 0x05
     220:	88 23       	and	r24, r24
     222:	31 f0       	breq	.+12     	; 0x230 <APP_pushAddr+0x32>
     224:	84 2f       	mov	r24, r20
    routeTablePtr++;
     226:	9f 5f       	subi	r25, 0xFF	; 255
     228:	90 93 90 02 	sts	0x0290, r25	; 0x800290 <__data_end>
    return APP_pushAddr(endpoint, data);
     22c:	e8 df       	rcall	.-48     	; 0x1fe <APP_pushAddr>
     22e:	1c c0       	rjmp	.+56     	; 0x268 <APP_pushAddr+0x6a>
  }

  routeTable[routeTablePtr].addr = routeTablePtr;
     230:	89 2f       	mov	r24, r25
     232:	90 e0       	ldi	r25, 0x00	; 0
     234:	f9 01       	movw	r30, r18
     236:	ee 0f       	add	r30, r30
     238:	ff 1f       	adc	r31, r31
     23a:	df 01       	movw	r26, r30
     23c:	a2 0f       	add	r26, r18
     23e:	b3 1f       	adc	r27, r19
     240:	aa 0f       	add	r26, r26
     242:	bb 1f       	adc	r27, r27
     244:	af 56       	subi	r26, 0x6F	; 111
     246:	bd 4f       	sbci	r27, 0xFD	; 253
     248:	11 96       	adiw	r26, 0x01	; 1
     24a:	9c 93       	st	X, r25
     24c:	8e 93       	st	-X, r24
  routeTable[routeTablePtr].endpoint = endpoint;
     24e:	12 96       	adiw	r26, 0x02	; 2
     250:	4c 93       	st	X, r20
     252:	12 97       	sbiw	r26, 0x02	; 2
  routeTable[routeTablePtr].sleeping = false;
     254:	14 96       	adiw	r26, 0x04	; 4
     256:	1c 92       	st	X, r1
     258:	14 97       	sbiw	r26, 0x04	; 4
  routeTable[routeTablePtr].type = (SensorType_t)(*data);
     25a:	eb 01       	movw	r28, r22
     25c:	48 81       	ld	r20, Y
     25e:	13 96       	adiw	r26, 0x03	; 3
     260:	4c 93       	st	X, r20
     262:	13 97       	sbiw	r26, 0x03	; 3
  // in_use only goes active on APP_ACK from client
  routeTable[routeTablePtr].in_use = false;
     264:	fd 01       	movw	r30, r26
     266:	15 82       	std	Z+5, r1	; 0x05
  return routeTablePtr;
}
     268:	df 91       	pop	r29
     26a:	cf 91       	pop	r28
     26c:	08 95       	ret

0000026e <APP_dataRecv>:

bool APP_dataRecv(NWK_DataInd_t *ind) {
     26e:	ef 92       	push	r14
     270:	ff 92       	push	r15
     272:	0f 93       	push	r16
     274:	1f 93       	push	r17
     276:	cf 93       	push	r28
     278:	df 93       	push	r29
     27a:	8c 01       	movw	r16, r24
  AppMsg_t *recv = (AppMsg_t *)ind->data;
     27c:	dc 01       	movw	r26, r24
     27e:	17 96       	adiw	r26, 0x07	; 7
     280:	ed 90       	ld	r14, X+
     282:	fc 90       	ld	r15, X
     284:	18 97       	sbiw	r26, 0x08	; 8
     */
    APP_dataSend(APPDATA, ind->srcAddr);
    break;
  }
#else
  switch (recv->msgType) {
     286:	d7 01       	movw	r26, r14
     288:	11 96       	adiw	r26, 0x01	; 1
     28a:	ec 91       	ld	r30, X
     28c:	8e 2f       	mov	r24, r30
     28e:	90 e0       	ldi	r25, 0x00	; 0
     290:	fc 01       	movw	r30, r24
     292:	31 97       	sbiw	r30, 0x01	; 1
     294:	e7 30       	cpi	r30, 0x07	; 7
     296:	f1 05       	cpc	r31, r1
     298:	08 f0       	brcs	.+2      	; 0x29c <APP_dataRecv+0x2e>
     29a:	77 c0       	rjmp	.+238    	; 0x38a <APP_dataRecv+0x11c>
     29c:	88 27       	eor	r24, r24
     29e:	e6 56       	subi	r30, 0x66	; 102
     2a0:	ff 4f       	sbci	r31, 0xFF	; 255
     2a2:	8f 4f       	sbci	r24, 0xFF	; 255
     2a4:	0c 94 0a 0e 	jmp	0x1c14	; 0x1c14 <__tablejump2__>
  case APPDATA:
    routeTable[ind->srcAddr].sleeping = true;
     2a8:	f8 01       	movw	r30, r16
     2aa:	80 81       	ld	r24, Z
     2ac:	91 81       	ldd	r25, Z+1	; 0x01
     2ae:	fc 01       	movw	r30, r24
     2b0:	ee 0f       	add	r30, r30
     2b2:	ff 1f       	adc	r31, r31
     2b4:	e8 0f       	add	r30, r24
     2b6:	f9 1f       	adc	r31, r25
     2b8:	ee 0f       	add	r30, r30
     2ba:	ff 1f       	adc	r31, r31
     2bc:	ef 56       	subi	r30, 0x6F	; 111
     2be:	fd 4f       	sbci	r31, 0xFD	; 253
     2c0:	81 e0       	ldi	r24, 0x01	; 1
     2c2:	84 83       	std	Z+4, r24	; 0x04
    /*
     * Place to handle receiving data from clients.
     */
    for (int i = 0; i < recv->size; i++) {
     2c4:	d7 01       	movw	r26, r14
     2c6:	8c 91       	ld	r24, X
     2c8:	88 23       	and	r24, r24
     2ca:	09 f4       	brne	.+2      	; 0x2ce <APP_dataRecv+0x60>
     2cc:	64 c0       	rjmp	.+200    	; 0x396 <APP_dataRecv+0x128>
     2ce:	c0 e0       	ldi	r28, 0x00	; 0
     2d0:	d0 e0       	ldi	r29, 0x00	; 0
      HAL_UartWriteByte(recv->data[i]);
     2d2:	d7 01       	movw	r26, r14
     2d4:	13 96       	adiw	r26, 0x03	; 3
     2d6:	ed 91       	ld	r30, X+
     2d8:	fc 91       	ld	r31, X
     2da:	14 97       	sbiw	r26, 0x04	; 4
     2dc:	ec 0f       	add	r30, r28
     2de:	fd 1f       	adc	r31, r29
     2e0:	80 81       	ld	r24, Z
     2e2:	73 d1       	rcall	.+742    	; 0x5ca <HAL_UartWriteByte>
  case APPDATA:
    routeTable[ind->srcAddr].sleeping = true;
    /*
     * Place to handle receiving data from clients.
     */
    for (int i = 0; i < recv->size; i++) {
     2e4:	21 96       	adiw	r28, 0x01	; 1
     2e6:	f7 01       	movw	r30, r14
     2e8:	80 81       	ld	r24, Z
     2ea:	90 e0       	ldi	r25, 0x00	; 0
     2ec:	c8 17       	cp	r28, r24
     2ee:	d9 07       	cpc	r29, r25
     2f0:	84 f3       	brlt	.-32     	; 0x2d2 <APP_dataRecv+0x64>
     2f2:	51 c0       	rjmp	.+162    	; 0x396 <APP_dataRecv+0x128>
      HAL_UartWriteByte(recv->data[i]);
    }
    break;
  case APP_SLEEP:
    routeTable[ind->srcAddr].sleeping = true;
     2f4:	d8 01       	movw	r26, r16
     2f6:	8d 91       	ld	r24, X+
     2f8:	9c 91       	ld	r25, X
     2fa:	fc 01       	movw	r30, r24
     2fc:	ee 0f       	add	r30, r30
     2fe:	ff 1f       	adc	r31, r31
     300:	e8 0f       	add	r30, r24
     302:	f9 1f       	adc	r31, r25
     304:	ee 0f       	add	r30, r30
     306:	ff 1f       	adc	r31, r31
     308:	ef 56       	subi	r30, 0x6F	; 111
     30a:	fd 4f       	sbci	r31, 0xFD	; 253
     30c:	81 e0       	ldi	r24, 0x01	; 1
     30e:	84 83       	std	Z+4, r24	; 0x04
    break;
     310:	42 c0       	rjmp	.+132    	; 0x396 <APP_dataRecv+0x128>
  case RECONNECT:
    routeTable[ind->srcAddr].sleeping = false;
     312:	f8 01       	movw	r30, r16
     314:	80 81       	ld	r24, Z
     316:	91 81       	ldd	r25, Z+1	; 0x01
     318:	fc 01       	movw	r30, r24
     31a:	ee 0f       	add	r30, r30
     31c:	ff 1f       	adc	r31, r31
     31e:	e8 0f       	add	r30, r24
     320:	f9 1f       	adc	r31, r25
     322:	ee 0f       	add	r30, r30
     324:	ff 1f       	adc	r31, r31
     326:	ef 56       	subi	r30, 0x6F	; 111
     328:	fd 4f       	sbci	r31, 0xFD	; 253
     32a:	14 82       	std	Z+4, r1	; 0x04
    break;
     32c:	34 c0       	rjmp	.+104    	; 0x396 <APP_dataRecv+0x128>
     * not evil.
     * Also, I presume that clients will not
     * request new adresses once they receive
     * one.
     */
    routeTablePtr++;
     32e:	80 91 90 02 	lds	r24, 0x0290	; 0x800290 <__data_end>
     332:	8f 5f       	subi	r24, 0xFF	; 255
     334:	80 93 90 02 	sts	0x0290, r24	; 0x800290 <__data_end>
    int16_t addr = APP_pushAddr(ind->srcEndpoint, ind->data);
     338:	b7 01       	movw	r22, r14
     33a:	d8 01       	movw	r26, r16
     33c:	14 96       	adiw	r26, 0x04	; 4
     33e:	8c 91       	ld	r24, X
     340:	5e df       	rcall	.-324    	; 0x1fe <APP_pushAddr>
    APP_dataSend(OFFER, ind->srcAddr);
     342:	f8 01       	movw	r30, r16
     344:	60 81       	ld	r22, Z
     346:	89 e0       	ldi	r24, 0x09	; 9
     348:	20 df       	rcall	.-448    	; 0x18a <APP_dataSend>
    break;
     34a:	25 c0       	rjmp	.+74     	; 0x396 <APP_dataRecv+0x128>
     * Therefore, it is presumed the REQUEST message
     * will be sent with the server-assigned adress,
     * so the server can set their adress as in use
     * in the routing table.
     */
    routeTable[ind->srcAddr].in_use = true;
     34c:	d8 01       	movw	r26, r16
     34e:	8d 91       	ld	r24, X+
     350:	9c 91       	ld	r25, X
     352:	fc 01       	movw	r30, r24
     354:	ee 0f       	add	r30, r30
     356:	ff 1f       	adc	r31, r31
     358:	e8 0f       	add	r30, r24
     35a:	f9 1f       	adc	r31, r25
     35c:	ee 0f       	add	r30, r30
     35e:	ff 1f       	adc	r31, r31
     360:	ef 56       	subi	r30, 0x6F	; 111
     362:	fd 4f       	sbci	r31, 0xFD	; 253
     364:	81 e0       	ldi	r24, 0x01	; 1
    HAL_UartWriteString("Accepted client on addr.: ");
     366:	85 83       	std	Z+5, r24	; 0x05
     368:	86 e2       	ldi	r24, 0x26	; 38
     36a:	92 e0       	ldi	r25, 0x02	; 2
    HAL_UartWriteString(ind->srcAddr);
     36c:	55 d1       	rcall	.+682    	; 0x618 <HAL_UartWriteString>
     36e:	f8 01       	movw	r30, r16
     370:	80 81       	ld	r24, Z
     372:	91 81       	ldd	r25, Z+1	; 0x01
    APP_dataSend(APP_ACK, ind->srcAddr);
     374:	51 d1       	rcall	.+674    	; 0x618 <HAL_UartWriteString>
     376:	d8 01       	movw	r26, r16
     378:	6c 91       	ld	r22, X
     37a:	81 e0       	ldi	r24, 0x01	; 1
    break;
     37c:	06 df       	rcall	.-500    	; 0x18a <APP_dataSend>
  case APP_ACK:
    APP_dataSend(REQUEST_DATA, routeTablePtr);
     37e:	0b c0       	rjmp	.+22     	; 0x396 <APP_dataRecv+0x128>
     380:	60 91 90 02 	lds	r22, 0x0290	; 0x800290 <__data_end>
     384:	8b e0       	ldi	r24, 0x0B	; 11
    break;
     386:	01 df       	rcall	.-510    	; 0x18a <APP_dataSend>
  default:
    HAL_UartWriteString("Unknown msg type: ");
     388:	06 c0       	rjmp	.+12     	; 0x396 <APP_dataRecv+0x128>
     38a:	81 e4       	ldi	r24, 0x41	; 65
     38c:	92 e0       	ldi	r25, 0x02	; 2
    HAL_UartWriteByte(recv->msgType);
     38e:	44 d1       	rcall	.+648    	; 0x618 <HAL_UartWriteString>
     390:	f7 01       	movw	r30, r14
     392:	81 81       	ldd	r24, Z+1	; 0x01
    break;
  }
#endif

#ifdef DEBUG_PRINT
  HAL_UartWriteByte('\n');
     394:	1a d1       	rcall	.+564    	; 0x5ca <HAL_UartWriteByte>
     396:	8a e0       	ldi	r24, 0x0A	; 10
  HAL_UartWriteString("To address: ");
     398:	18 d1       	rcall	.+560    	; 0x5ca <HAL_UartWriteByte>
     39a:	84 e5       	ldi	r24, 0x54	; 84
     39c:	92 e0       	ldi	r25, 0x02	; 2
  HAL_UartWriteByte(ind->dstAddr >> 8);
     39e:	3c d1       	rcall	.+632    	; 0x618 <HAL_UartWriteString>
     3a0:	d8 01       	movw	r26, r16
     3a2:	13 96       	adiw	r26, 0x03	; 3
     3a4:	8c 91       	ld	r24, X
  HAL_UartWriteByte(ind->dstAddr);
     3a6:	11 d1       	rcall	.+546    	; 0x5ca <HAL_UartWriteByte>
     3a8:	f8 01       	movw	r30, r16
     3aa:	82 81       	ldd	r24, Z+2	; 0x02
  HAL_UartWriteByte('\n');
     3ac:	0e d1       	rcall	.+540    	; 0x5ca <HAL_UartWriteByte>
     3ae:	8a e0       	ldi	r24, 0x0A	; 10
  HAL_UartWriteString("From address: ");
     3b0:	0c d1       	rcall	.+536    	; 0x5ca <HAL_UartWriteByte>
     3b2:	81 e6       	ldi	r24, 0x61	; 97
     3b4:	92 e0       	ldi	r25, 0x02	; 2
  HAL_UartWriteByte(ind->srcAddr >> 8);
     3b6:	30 d1       	rcall	.+608    	; 0x618 <HAL_UartWriteString>
     3b8:	d8 01       	movw	r26, r16
     3ba:	11 96       	adiw	r26, 0x01	; 1
  HAL_UartWriteByte(ind->srcAddr);
     3bc:	8c 91       	ld	r24, X
     3be:	05 d1       	rcall	.+522    	; 0x5ca <HAL_UartWriteByte>
     3c0:	f8 01       	movw	r30, r16
  HAL_UartWriteByte('\n');
     3c2:	80 81       	ld	r24, Z
     3c4:	02 d1       	rcall	.+516    	; 0x5ca <HAL_UartWriteByte>
  HAL_UartWriteString("Message type: ");
     3c6:	8a e0       	ldi	r24, 0x0A	; 10
     3c8:	00 d1       	rcall	.+512    	; 0x5ca <HAL_UartWriteByte>
     3ca:	80 e7       	ldi	r24, 0x70	; 112
  HAL_UartWriteByte(recv->msgType);
     3cc:	92 e0       	ldi	r25, 0x02	; 2
     3ce:	24 d1       	rcall	.+584    	; 0x618 <HAL_UartWriteString>
     3d0:	d7 01       	movw	r26, r14
     3d2:	11 96       	adiw	r26, 0x01	; 1
     3d4:	8c 91       	ld	r24, X
  HAL_UartWriteByte('\n');
     3d6:	f9 d0       	rcall	.+498    	; 0x5ca <HAL_UartWriteByte>
     3d8:	8a e0       	ldi	r24, 0x0A	; 10
     3da:	f7 d0       	rcall	.+494    	; 0x5ca <HAL_UartWriteByte>
  HAL_UartWriteString("Size: ");
     3dc:	8f e7       	ldi	r24, 0x7F	; 127
     3de:	92 e0       	ldi	r25, 0x02	; 2
     3e0:	1b d1       	rcall	.+566    	; 0x618 <HAL_UartWriteString>
     3e2:	f8 01       	movw	r30, r16
  HAL_UartWriteByte(ind->size);
     3e4:	81 85       	ldd	r24, Z+9	; 0x09
     3e6:	f1 d0       	rcall	.+482    	; 0x5ca <HAL_UartWriteByte>
     3e8:	8a e0       	ldi	r24, 0x0A	; 10
  HAL_UartWriteByte('\n');
     3ea:	ef d0       	rcall	.+478    	; 0x5ca <HAL_UartWriteByte>
     3ec:	86 e8       	ldi	r24, 0x86	; 134
     3ee:	92 e0       	ldi	r25, 0x02	; 2
  HAL_UartWriteString("Payload: ");
     3f0:	13 d1       	rcall	.+550    	; 0x618 <HAL_UartWriteString>
     3f2:	d8 01       	movw	r26, r16
     3f4:	19 96       	adiw	r26, 0x09	; 9
  for (int i = 0; i < ind->size; i++) {
     3f6:	8c 91       	ld	r24, X
     3f8:	88 23       	and	r24, r24
     3fa:	91 f0       	breq	.+36     	; 0x420 <__LOCK_REGION_LENGTH__+0x20>
     3fc:	c0 e0       	ldi	r28, 0x00	; 0
     3fe:	d0 e0       	ldi	r29, 0x00	; 0
     400:	d7 01       	movw	r26, r14
     402:	13 96       	adiw	r26, 0x03	; 3
    HAL_UartWriteByte(recv->data[i]);
     404:	ed 91       	ld	r30, X+
     406:	fc 91       	ld	r31, X
     408:	14 97       	sbiw	r26, 0x04	; 4
     40a:	ec 0f       	add	r30, r28
     40c:	fd 1f       	adc	r31, r29
     40e:	80 81       	ld	r24, Z
     410:	dc d0       	rcall	.+440    	; 0x5ca <HAL_UartWriteByte>
     412:	21 96       	adiw	r28, 0x01	; 1
     414:	f8 01       	movw	r30, r16
     416:	81 85       	ldd	r24, Z+9	; 0x09
  HAL_UartWriteByte('\n');
  HAL_UartWriteString("Size: ");
  HAL_UartWriteByte(ind->size);
  HAL_UartWriteByte('\n');
  HAL_UartWriteString("Payload: ");
  for (int i = 0; i < ind->size; i++) {
     418:	90 e0       	ldi	r25, 0x00	; 0
     41a:	c8 17       	cp	r28, r24
     41c:	d9 07       	cpc	r29, r25
     41e:	84 f3       	brlt	.-32     	; 0x400 <__LOCK_REGION_LENGTH__>
     420:	8a e0       	ldi	r24, 0x0A	; 10
     422:	d3 d0       	rcall	.+422    	; 0x5ca <HAL_UartWriteByte>
     424:	81 e0       	ldi	r24, 0x01	; 1
    HAL_UartWriteByte(recv->data[i]);
  }
  HAL_UartWriteByte('\n');
     426:	df 91       	pop	r29
     428:	cf 91       	pop	r28
     42a:	1f 91       	pop	r17
#endif

  return true;
}
     42c:	0f 91       	pop	r16
     42e:	ff 90       	pop	r15
     430:	ef 90       	pop	r14
     432:	08 95       	ret

00000434 <APP_init>:
     434:	80 e0       	ldi	r24, 0x00	; 0
     436:	90 e0       	ldi	r25, 0x00	; 0
     438:	ca d1       	rcall	.+916    	; 0x7ce <NWK_SetAddr>
     43a:	80 e8       	ldi	r24, 0x80	; 128
  (void)timer;
}

void APP_init(void) {
  NWK_SetAddr(APP_ADDR);
  NWK_SetPanId(APP_PANID);
     43c:	90 e0       	ldi	r25, 0x00	; 0
     43e:	ce d1       	rcall	.+924    	; 0x7dc <NWK_SetPanId>
  PHY_SetChannel(APP_CHANNEL);
     440:	8f e0       	ldi	r24, 0x0F	; 15
     442:	0e 94 12 0c 	call	0x1824	; 0x1824 <PHY_SetChannel>
  PHY_SetRxState(true);
     446:	81 e0       	ldi	r24, 0x01	; 1
     448:	0e 94 0e 0c 	call	0x181c	; 0x181c <PHY_SetRxState>

  NWK_OpenEndpoint(APP_ENDPOINT, APP_dataRecv);
     44c:	67 e3       	ldi	r22, 0x37	; 55
     44e:	71 e0       	ldi	r23, 0x01	; 1
     450:	83 e0       	ldi	r24, 0x03	; 3
     452:	cb d1       	rcall	.+918    	; 0x7ea <NWK_OpenEndpoint>
  HAL_BoardInit();

  timer.interval = APP_FLUSH_TIMER_INTERVAL;
  timer.mode = SYS_TIMER_INTERVAL_MODE;
  timer.handler = APP_timerHandler;
  dataReq.data = dataReqBuffer;
     454:	81 e9       	ldi	r24, 0x91	; 145
     456:	98 e0       	ldi	r25, 0x08	; 8
     458:	90 93 09 09 	sts	0x0909, r25	; 0x800909 <dataReq+0xb>
     45c:	80 93 08 09 	sts	0x0908, r24	; 0x800908 <dataReq+0xa>

#if DESIGNATION == 0 // client
  APP_dataSend(DISCOVER, 00);
     460:	60 e0       	ldi	r22, 0x00	; 0
     462:	82 e0       	ldi	r24, 0x02	; 2
     464:	92 ce       	rjmp	.-732    	; 0x18a <APP_dataSend>
     466:	08 95       	ret

00000468 <main>:
		break;
	}
}

int main(void) {
	SYS_Init();
     468:	0e 94 e3 0c 	call	0x19c6	; 0x19c6 <SYS_Init>
	HAL_UartInit(38400);
     46c:	60 e0       	ldi	r22, 0x00	; 0
     46e:	76 e9       	ldi	r23, 0x96	; 150
     470:	80 e0       	ldi	r24, 0x00	; 0
     472:	90 e0       	ldi	r25, 0x00	; 0
     474:	55 d0       	rcall	.+170    	; 0x520 <HAL_UartInit>

static void APP_TaskHandler(void) {
	switch (appState) {
		case INIT: {
			APP_init();
			appState = IDLE;
     476:	c1 e0       	ldi	r28, 0x01	; 1
int main(void) {
	SYS_Init();
	HAL_UartInit(38400);

	while (1) {
		SYS_TaskHandler();
     478:	0e 94 ea 0c 	call	0x19d4	; 0x19d4 <SYS_TaskHandler>
		HAL_UartTaskHandler();
     47c:	4e d1       	rcall	.+668    	; 0x71a <HAL_UartTaskHandler>
#include "sys.h"

static AppState_t appState;

static void APP_TaskHandler(void) {
	switch (appState) {
     47e:	80 91 0f 09 	lds	r24, 0x090F	; 0x80090f <appState>
     482:	81 11       	cpse	r24, r1
		case INIT: {
			APP_init();
     484:	f9 cf       	rjmp	.-14     	; 0x478 <main+0x10>
     486:	d6 df       	rcall	.-84     	; 0x434 <APP_init>
			appState = IDLE;
     488:	c0 93 0f 09 	sts	0x090F, r28	; 0x80090f <appState>
     48c:	f5 cf       	rjmp	.-22     	; 0x478 <main+0x10>

0000048e <HAL_Init>:
     48e:	14 be       	out	0x34, r1	; 52
		);
	}
	else
	{
        uint8_t register temp_reg;
		__asm__ __volatile__ (
     490:	0f b6       	in	r0, 0x3f	; 63
     492:	f8 94       	cli
     494:	a8 95       	wdr
     496:	80 91 60 00 	lds	r24, 0x0060	; 0x800060 <__TEXT_REGION_LENGTH__+0x7c0060>
     49a:	88 61       	ori	r24, 0x18	; 24
     49c:	80 93 60 00 	sts	0x0060, r24	; 0x800060 <__TEXT_REGION_LENGTH__+0x7c0060>
     4a0:	10 92 60 00 	sts	0x0060, r1	; 0x800060 <__TEXT_REGION_LENGTH__+0x7c0060>
     4a4:	0f be       	out	0x3f, r0	; 63
     4a6:	e1 e6       	ldi	r30, 0x61	; 97
     4a8:	f0 e0       	ldi	r31, 0x00	; 0
     4aa:	80 e8       	ldi	r24, 0x80	; 128
     4ac:	80 83       	st	Z, r24
     4ae:	10 82       	st	Z, r1
     4b0:	78 94       	sei
     4b2:	01 c0       	rjmp	.+2      	; 0x4b6 <HAL_TimerInit>
     4b4:	08 95       	ret

000004b6 <HAL_TimerInit>:
     4b6:	10 92 f7 1f 	sts	0x1FF7, r1	; 0x801ff7 <halTimerIrqCount>
     4ba:	80 e1       	ldi	r24, 0x10	; 16
     4bc:	97 e2       	ldi	r25, 0x27	; 39
     4be:	90 93 a9 00 	sts	0x00A9, r25	; 0x8000a9 <__TEXT_REGION_LENGTH__+0x7c00a9>
     4c2:	80 93 a8 00 	sts	0x00A8, r24	; 0x8000a8 <__TEXT_REGION_LENGTH__+0x7c00a8>
     4c6:	e1 ea       	ldi	r30, 0xA1	; 161
     4c8:	f0 e0       	ldi	r31, 0x00	; 0
     4ca:	88 e0       	ldi	r24, 0x08	; 8
     4cc:	80 83       	st	Z, r24
     4ce:	80 81       	ld	r24, Z
     4d0:	82 60       	ori	r24, 0x02	; 2
     4d2:	80 83       	st	Z, r24
     4d4:	e2 e7       	ldi	r30, 0x72	; 114
     4d6:	f0 e0       	ldi	r31, 0x00	; 0
     4d8:	80 81       	ld	r24, Z
     4da:	82 60       	ori	r24, 0x02	; 2
     4dc:	80 83       	st	Z, r24
     4de:	08 95       	ret

000004e0 <__vector_42>:
     4e0:	1f 92       	push	r1
     4e2:	0f 92       	push	r0
     4e4:	0f b6       	in	r0, 0x3f	; 63
     4e6:	0f 92       	push	r0
     4e8:	11 24       	eor	r1, r1
     4ea:	8f 93       	push	r24
     4ec:	80 91 f7 1f 	lds	r24, 0x1FF7	; 0x801ff7 <halTimerIrqCount>
     4f0:	8f 5f       	subi	r24, 0xFF	; 255
     4f2:	80 93 f7 1f 	sts	0x1FF7, r24	; 0x801ff7 <halTimerIrqCount>
     4f6:	8f 91       	pop	r24
     4f8:	0f 90       	pop	r0
     4fa:	0f be       	out	0x3f, r0	; 63
     4fc:	0f 90       	pop	r0
     4fe:	1f 90       	pop	r1
     500:	18 95       	reti

00000502 <__vector_13>:
     502:	1f 92       	push	r1
     504:	0f 92       	push	r0
     506:	0f b6       	in	r0, 0x3f	; 63
     508:	0f 92       	push	r0
     50a:	11 24       	eor	r1, r1
     50c:	8f 93       	push	r24
     50e:	81 e0       	ldi	r24, 0x01	; 1
     510:	80 93 10 09 	sts	0x0910, r24	; 0x800910 <halSleepTimerEvent>
     514:	8f 91       	pop	r24
     516:	0f 90       	pop	r0
     518:	0f be       	out	0x3f, r0	; 63
     51a:	0f 90       	pop	r0
     51c:	1f 90       	pop	r1
     51e:	18 95       	reti

00000520 <HAL_UartInit>:
    rxFifo.bytes--;
  ATOMIC_SECTION_LEAVE
  PRAGMA(diag_default=Pa082);

  return byte;
}
     520:	dc 01       	movw	r26, r24
     522:	cb 01       	movw	r24, r22
     524:	88 0f       	add	r24, r24
     526:	99 1f       	adc	r25, r25
     528:	aa 1f       	adc	r26, r26
     52a:	bb 1f       	adc	r27, r27
     52c:	88 0f       	add	r24, r24
     52e:	99 1f       	adc	r25, r25
     530:	aa 1f       	adc	r26, r26
     532:	bb 1f       	adc	r27, r27
     534:	9c 01       	movw	r18, r24
     536:	ad 01       	movw	r20, r26
     538:	22 0f       	add	r18, r18
     53a:	33 1f       	adc	r19, r19
     53c:	44 1f       	adc	r20, r20
     53e:	55 1f       	adc	r21, r21
     540:	22 0f       	add	r18, r18
     542:	33 1f       	adc	r19, r19
     544:	44 1f       	adc	r20, r20
     546:	55 1f       	adc	r21, r21
     548:	60 e0       	ldi	r22, 0x00	; 0
     54a:	74 e2       	ldi	r23, 0x24	; 36
     54c:	84 ef       	ldi	r24, 0xF4	; 244
     54e:	90 e0       	ldi	r25, 0x00	; 0
     550:	0e 94 e8 0d 	call	0x1bd0	; 0x1bd0 <__udivmodsi4>
     554:	ba 01       	movw	r22, r20
     556:	a9 01       	movw	r20, r18
     558:	41 50       	subi	r20, 0x01	; 1
     55a:	51 09       	sbc	r21, r1
     55c:	61 09       	sbc	r22, r1
     55e:	71 09       	sbc	r23, r1
     560:	bb 27       	eor	r27, r27
     562:	a7 2f       	mov	r26, r23
     564:	96 2f       	mov	r25, r22
     566:	85 2f       	mov	r24, r21
     568:	80 93 cd 00 	sts	0x00CD, r24	; 0x8000cd <__TEXT_REGION_LENGTH__+0x7c00cd>
     56c:	40 93 cc 00 	sts	0x00CC, r20	; 0x8000cc <__TEXT_REGION_LENGTH__+0x7c00cc>
     570:	82 e0       	ldi	r24, 0x02	; 2
     572:	80 93 c8 00 	sts	0x00C8, r24	; 0x8000c8 <__TEXT_REGION_LENGTH__+0x7c00c8>
     576:	88 e9       	ldi	r24, 0x98	; 152
     578:	80 93 c9 00 	sts	0x00C9, r24	; 0x8000c9 <__TEXT_REGION_LENGTH__+0x7c00c9>
     57c:	86 e0       	ldi	r24, 0x06	; 6
     57e:	80 93 ca 00 	sts	0x00CA, r24	; 0x8000ca <__TEXT_REGION_LENGTH__+0x7c00ca>
     582:	ef e3       	ldi	r30, 0x3F	; 63
     584:	fc e0       	ldi	r31, 0x0C	; 12
     586:	8e ea       	ldi	r24, 0xAE	; 174
     588:	9a e0       	ldi	r25, 0x0A	; 10
     58a:	91 87       	std	Z+9, r25	; 0x09
     58c:	80 87       	std	Z+8, r24	; 0x08
     58e:	80 e9       	ldi	r24, 0x90	; 144
     590:	91 e0       	ldi	r25, 0x01	; 1
     592:	95 83       	std	Z+5, r25	; 0x05
     594:	84 83       	std	Z+4, r24	; 0x04
     596:	17 82       	std	Z+7, r1	; 0x07
     598:	16 82       	std	Z+6, r1	; 0x06
     59a:	11 82       	std	Z+1, r1	; 0x01
     59c:	10 82       	st	Z, r1
     59e:	13 82       	std	Z+3, r1	; 0x03
     5a0:	12 82       	std	Z+2, r1	; 0x02
     5a2:	e4 ea       	ldi	r30, 0xA4	; 164
     5a4:	fa e0       	ldi	r31, 0x0A	; 10
     5a6:	23 e1       	ldi	r18, 0x13	; 19
     5a8:	39 e0       	ldi	r19, 0x09	; 9
     5aa:	31 87       	std	Z+9, r19	; 0x09
     5ac:	20 87       	std	Z+8, r18	; 0x08
     5ae:	95 83       	std	Z+5, r25	; 0x05
     5b0:	84 83       	std	Z+4, r24	; 0x04
     5b2:	17 82       	std	Z+7, r1	; 0x07
     5b4:	16 82       	std	Z+6, r1	; 0x06
     5b6:	11 82       	std	Z+1, r1	; 0x01
     5b8:	10 82       	st	Z, r1
     5ba:	13 82       	std	Z+3, r1	; 0x03
     5bc:	12 82       	std	Z+2, r1	; 0x02
     5be:	81 e0       	ldi	r24, 0x01	; 1
     5c0:	80 93 12 09 	sts	0x0912, r24	; 0x800912 <udrEmpty>
     5c4:	10 92 11 09 	sts	0x0911, r1	; 0x800911 <newData>
     5c8:	08 95       	ret

000005ca <HAL_UartWriteByte>:
     5ca:	cf 93       	push	r28
     5cc:	df 93       	push	r29
     5ce:	ef e3       	ldi	r30, 0x3F	; 63
     5d0:	fc e0       	ldi	r31, 0x0C	; 12
     5d2:	26 81       	ldd	r18, Z+6	; 0x06
     5d4:	37 81       	ldd	r19, Z+7	; 0x07
     5d6:	64 81       	ldd	r22, Z+4	; 0x04
     5d8:	75 81       	ldd	r23, Z+5	; 0x05
     5da:	26 17       	cp	r18, r22
     5dc:	37 07       	cpc	r19, r23
     5de:	c9 f0       	breq	.+50     	; 0x612 <HAL_UartWriteByte+0x48>
     5e0:	c0 85       	ldd	r28, Z+8	; 0x08
     5e2:	d1 85       	ldd	r29, Z+9	; 0x09
     5e4:	42 81       	ldd	r20, Z+2	; 0x02
     5e6:	53 81       	ldd	r21, Z+3	; 0x03
     5e8:	da 01       	movw	r26, r20
     5ea:	11 96       	adiw	r26, 0x01	; 1
     5ec:	b3 83       	std	Z+3, r27	; 0x03
     5ee:	a2 83       	std	Z+2, r26	; 0x02
     5f0:	fe 01       	movw	r30, r28
     5f2:	e4 0f       	add	r30, r20
     5f4:	f5 1f       	adc	r31, r21
     5f6:	80 83       	st	Z, r24
     5f8:	6a 17       	cp	r22, r26
     5fa:	7b 07       	cpc	r23, r27
     5fc:	21 f4       	brne	.+8      	; 0x606 <HAL_UartWriteByte+0x3c>
     5fe:	10 92 42 0c 	sts	0x0C42, r1	; 0x800c42 <txFifo+0x3>
     602:	10 92 41 0c 	sts	0x0C41, r1	; 0x800c41 <txFifo+0x2>
     606:	2f 5f       	subi	r18, 0xFF	; 255
     608:	3f 4f       	sbci	r19, 0xFF	; 255
     60a:	30 93 46 0c 	sts	0x0C46, r19	; 0x800c46 <txFifo+0x7>
     60e:	20 93 45 0c 	sts	0x0C45, r18	; 0x800c45 <txFifo+0x6>
     612:	df 91       	pop	r29
     614:	cf 91       	pop	r28
     616:	08 95       	ret

00000618 <HAL_UartWriteString>:
     618:	cf 93       	push	r28
     61a:	df 93       	push	r29
     61c:	ec 01       	movw	r28, r24
     61e:	88 81       	ld	r24, Y
     620:	88 23       	and	r24, r24
     622:	29 f0       	breq	.+10     	; 0x62e <HAL_UartWriteString+0x16>
     624:	21 96       	adiw	r28, 0x01	; 1
     626:	d1 df       	rcall	.-94     	; 0x5ca <HAL_UartWriteByte>
     628:	89 91       	ld	r24, Y+
     62a:	81 11       	cpse	r24, r1
     62c:	fc cf       	rjmp	.-8      	; 0x626 <HAL_UartWriteString+0xe>
     62e:	df 91       	pop	r29
     630:	cf 91       	pop	r28
     632:	08 95       	ret

00000634 <__vector_37>:

/*************************************************************************//**
*****************************************************************************/
ISR(USARTx_UDRE_vect)
{
     634:	1f 92       	push	r1
     636:	0f 92       	push	r0
     638:	0f b6       	in	r0, 0x3f	; 63
     63a:	0f 92       	push	r0
     63c:	11 24       	eor	r1, r1
     63e:	0b b6       	in	r0, 0x3b	; 59
     640:	0f 92       	push	r0
     642:	8f 93       	push	r24
     644:	ef 93       	push	r30
     646:	ff 93       	push	r31
  udrEmpty = true;
     648:	81 e0       	ldi	r24, 0x01	; 1
     64a:	80 93 12 09 	sts	0x0912, r24	; 0x800912 <udrEmpty>
  UCSRxB &= ~(1 << UDRIE1);
     64e:	e9 ec       	ldi	r30, 0xC9	; 201
     650:	f0 e0       	ldi	r31, 0x00	; 0
     652:	80 81       	ld	r24, Z
     654:	8f 7d       	andi	r24, 0xDF	; 223
     656:	80 83       	st	Z, r24
}
     658:	ff 91       	pop	r31
     65a:	ef 91       	pop	r30
     65c:	8f 91       	pop	r24
     65e:	0f 90       	pop	r0
     660:	0b be       	out	0x3b, r0	; 59
     662:	0f 90       	pop	r0
     664:	0f be       	out	0x3f, r0	; 63
     666:	0f 90       	pop	r0
     668:	1f 90       	pop	r1
     66a:	18 95       	reti

0000066c <__vector_36>:

/*************************************************************************//**
*****************************************************************************/
ISR(USARTx_RX_vect)
{
     66c:	1f 92       	push	r1
     66e:	0f 92       	push	r0
     670:	0f b6       	in	r0, 0x3f	; 63
     672:	0f 92       	push	r0
     674:	11 24       	eor	r1, r1
     676:	0b b6       	in	r0, 0x3b	; 59
     678:	0f 92       	push	r0
     67a:	2f 93       	push	r18
     67c:	3f 93       	push	r19
     67e:	4f 93       	push	r20
     680:	5f 93       	push	r21
     682:	6f 93       	push	r22
     684:	7f 93       	push	r23
     686:	8f 93       	push	r24
     688:	9f 93       	push	r25
     68a:	af 93       	push	r26
     68c:	bf 93       	push	r27
     68e:	ef 93       	push	r30
     690:	ff 93       	push	r31
  PRAGMA(diag_suppress=Pa082);

  uint8_t status = UCSRxA;
     692:	80 91 c8 00 	lds	r24, 0x00C8	; 0x8000c8 <__TEXT_REGION_LENGTH__+0x7c00c8>
  uint8_t byte = UDRx;
     696:	20 91 ce 00 	lds	r18, 0x00CE	; 0x8000ce <__TEXT_REGION_LENGTH__+0x7c00ce>

  if (0 == (status & ((1 << FE1) | (1 << DOR1) | (1 << UPE1))))
     69a:	8c 71       	andi	r24, 0x1C	; 28
     69c:	59 f5       	brne	.+86     	; 0x6f4 <__vector_36+0x88>
  {
    if (rxFifo.bytes == rxFifo.size)
     69e:	e4 ea       	ldi	r30, 0xA4	; 164
     6a0:	fa e0       	ldi	r31, 0x0A	; 10
     6a2:	46 81       	ldd	r20, Z+6	; 0x06
     6a4:	57 81       	ldd	r21, Z+7	; 0x07
     6a6:	84 81       	ldd	r24, Z+4	; 0x04
     6a8:	95 81       	ldd	r25, Z+5	; 0x05
     6aa:	48 17       	cp	r20, r24
     6ac:	59 07       	cpc	r21, r25
     6ae:	11 f1       	breq	.+68     	; 0x6f4 <__vector_36+0x88>
      return;

    rxFifo.data[rxFifo.tail++] = byte;
     6b0:	40 85       	ldd	r20, Z+8	; 0x08
     6b2:	51 85       	ldd	r21, Z+9	; 0x09
     6b4:	82 81       	ldd	r24, Z+2	; 0x02
     6b6:	93 81       	ldd	r25, Z+3	; 0x03
     6b8:	bc 01       	movw	r22, r24
     6ba:	6f 5f       	subi	r22, 0xFF	; 255
     6bc:	7f 4f       	sbci	r23, 0xFF	; 255
     6be:	73 83       	std	Z+3, r23	; 0x03
     6c0:	62 83       	std	Z+2, r22	; 0x02
     6c2:	da 01       	movw	r26, r20
     6c4:	a8 0f       	add	r26, r24
     6c6:	b9 1f       	adc	r27, r25
     6c8:	2c 93       	st	X, r18
    if (rxFifo.tail == rxFifo.size)
     6ca:	22 81       	ldd	r18, Z+2	; 0x02
     6cc:	33 81       	ldd	r19, Z+3	; 0x03
     6ce:	84 81       	ldd	r24, Z+4	; 0x04
     6d0:	95 81       	ldd	r25, Z+5	; 0x05
     6d2:	28 17       	cp	r18, r24
     6d4:	39 07       	cpc	r19, r25
     6d6:	21 f4       	brne	.+8      	; 0x6e0 <__vector_36+0x74>
      rxFifo.tail = 0;
     6d8:	10 92 a7 0a 	sts	0x0AA7, r1	; 0x800aa7 <rxFifo+0x3>
     6dc:	10 92 a6 0a 	sts	0x0AA6, r1	; 0x800aa6 <rxFifo+0x2>
    rxFifo.bytes++;
     6e0:	e4 ea       	ldi	r30, 0xA4	; 164
     6e2:	fa e0       	ldi	r31, 0x0A	; 10
     6e4:	86 81       	ldd	r24, Z+6	; 0x06
     6e6:	97 81       	ldd	r25, Z+7	; 0x07
     6e8:	01 96       	adiw	r24, 0x01	; 1
     6ea:	97 83       	std	Z+7, r25	; 0x07
     6ec:	86 83       	std	Z+6, r24	; 0x06

    newData = true;
     6ee:	81 e0       	ldi	r24, 0x01	; 1
     6f0:	80 93 11 09 	sts	0x0911, r24	; 0x800911 <newData>
  }

  PRAGMA(diag_default=Pa082);
}
     6f4:	ff 91       	pop	r31
     6f6:	ef 91       	pop	r30
     6f8:	bf 91       	pop	r27
     6fa:	af 91       	pop	r26
     6fc:	9f 91       	pop	r25
     6fe:	8f 91       	pop	r24
     700:	7f 91       	pop	r23
     702:	6f 91       	pop	r22
     704:	5f 91       	pop	r21
     706:	4f 91       	pop	r20
     708:	3f 91       	pop	r19
     70a:	2f 91       	pop	r18
     70c:	0f 90       	pop	r0
     70e:	0b be       	out	0x3b, r0	; 59
     710:	0f 90       	pop	r0
     712:	0f be       	out	0x3f, r0	; 63
     714:	0f 90       	pop	r0
     716:	1f 90       	pop	r1
     718:	18 95       	reti

0000071a <HAL_UartTaskHandler>:

/*************************************************************************//**
*****************************************************************************/
void HAL_UartTaskHandler(void)
{
  if (txFifo.bytes && udrEmpty)
     71a:	80 91 45 0c 	lds	r24, 0x0C45	; 0x800c45 <txFifo+0x6>
     71e:	90 91 46 0c 	lds	r25, 0x0C46	; 0x800c46 <txFifo+0x7>
     722:	00 97       	sbiw	r24, 0x00	; 0
     724:	69 f1       	breq	.+90     	; 0x780 <HAL_UartTaskHandler+0x66>
     726:	20 91 12 09 	lds	r18, 0x0912	; 0x800912 <udrEmpty>
     72a:	22 23       	and	r18, r18
     72c:	49 f1       	breq	.+82     	; 0x780 <HAL_UartTaskHandler+0x66>
  {
    uint8_t byte;

    byte = txFifo.data[txFifo.head++];
     72e:	ef e3       	ldi	r30, 0x3F	; 63
     730:	fc e0       	ldi	r31, 0x0C	; 12
     732:	60 85       	ldd	r22, Z+8	; 0x08
     734:	71 85       	ldd	r23, Z+9	; 0x09
     736:	20 81       	ld	r18, Z
     738:	31 81       	ldd	r19, Z+1	; 0x01
     73a:	a9 01       	movw	r20, r18
     73c:	4f 5f       	subi	r20, 0xFF	; 255
     73e:	5f 4f       	sbci	r21, 0xFF	; 255
     740:	51 83       	std	Z+1, r21	; 0x01
     742:	40 83       	st	Z, r20
     744:	db 01       	movw	r26, r22
     746:	a2 0f       	add	r26, r18
     748:	b3 1f       	adc	r27, r19
     74a:	2c 91       	ld	r18, X
    if (txFifo.head == txFifo.size)
     74c:	64 81       	ldd	r22, Z+4	; 0x04
     74e:	75 81       	ldd	r23, Z+5	; 0x05
     750:	46 17       	cp	r20, r22
     752:	57 07       	cpc	r21, r23
     754:	21 f4       	brne	.+8      	; 0x75e <HAL_UartTaskHandler+0x44>
      txFifo.head = 0;
     756:	10 92 40 0c 	sts	0x0C40, r1	; 0x800c40 <txFifo+0x1>
     75a:	10 92 3f 0c 	sts	0x0C3F, r1	; 0x800c3f <txFifo>
    txFifo.bytes--;
     75e:	01 97       	sbiw	r24, 0x01	; 1
     760:	90 93 46 0c 	sts	0x0C46, r25	; 0x800c46 <txFifo+0x7>
     764:	80 93 45 0c 	sts	0x0C45, r24	; 0x800c45 <txFifo+0x6>

    ATOMIC_SECTION_ENTER
     768:	9f b7       	in	r25, 0x3f	; 63
     76a:	f8 94       	cli
      UDRx = byte;
     76c:	20 93 ce 00 	sts	0x00CE, r18	; 0x8000ce <__TEXT_REGION_LENGTH__+0x7c00ce>
      UCSRxB |= (1 << UDRIE1);
     770:	e9 ec       	ldi	r30, 0xC9	; 201
     772:	f0 e0       	ldi	r31, 0x00	; 0
     774:	80 81       	ld	r24, Z
     776:	80 62       	ori	r24, 0x20	; 32
     778:	80 83       	st	Z, r24
      udrEmpty = false;
     77a:	10 92 12 09 	sts	0x0912, r1	; 0x800912 <udrEmpty>
    ATOMIC_SECTION_LEAVE
     77e:	9f bf       	out	0x3f, r25	; 63

  {
    uint16_t bytes;
    bool new;

    ATOMIC_SECTION_ENTER
     780:	2f b7       	in	r18, 0x3f	; 63
     782:	f8 94       	cli
      new = newData;
     784:	90 91 11 09 	lds	r25, 0x0911	; 0x800911 <newData>
      newData = false;
     788:	10 92 11 09 	sts	0x0911, r1	; 0x800911 <newData>
      bytes = rxFifo.bytes;
     78c:	40 91 aa 0a 	lds	r20, 0x0AAA	; 0x800aaa <rxFifo+0x6>
     790:	50 91 ab 0a 	lds	r21, 0x0AAB	; 0x800aab <rxFifo+0x7>
    ATOMIC_SECTION_LEAVE
     794:	2f bf       	out	0x3f, r18	; 63

    if (new)
     796:	99 23       	and	r25, r25
     798:	11 f0       	breq	.+4      	; 0x79e <HAL_UartTaskHandler+0x84>
      HAL_UartBytesReceived(bytes);
     79a:	ca 01       	movw	r24, r20
     79c:	f4 cc       	rjmp	.-1560   	; 0x186 <HAL_UartBytesReceived>
     79e:	08 95       	ret

000007a0 <NWK_Init>:
      return val[i];
    cl += 25;
  }

  return 255;
}
     7a0:	e8 ef       	ldi	r30, 0xF8	; 248
     7a2:	ff e1       	ldi	r31, 0x1F	; 31
     7a4:	14 82       	std	Z+4, r1	; 0x04
     7a6:	15 82       	std	Z+5, r1	; 0x05
     7a8:	11 82       	std	Z+1, r1	; 0x01
     7aa:	10 82       	st	Z, r1
     7ac:	17 a2       	std	Z+39, r1	; 0x27
     7ae:	16 a2       	std	Z+38, r1	; 0x26
     7b0:	ee ef       	ldi	r30, 0xFE	; 254
     7b2:	ff e1       	ldi	r31, 0x1F	; 31
     7b4:	8e e1       	ldi	r24, 0x1E	; 30
     7b6:	90 e2       	ldi	r25, 0x20	; 32
     7b8:	11 92       	st	Z+, r1
     7ba:	11 92       	st	Z+, r1
     7bc:	e8 17       	cp	r30, r24
     7be:	f9 07       	cpc	r31, r25
     7c0:	d9 f7       	brne	.-10     	; 0x7b8 <NWK_Init+0x18>
     7c2:	42 d6       	rcall	.+3204   	; 0x1448 <nwkTxInit>
     7c4:	60 d3       	rcall	.+1728   	; 0xe86 <nwkRxInit>
     7c6:	0d d1       	rcall	.+538    	; 0x9e2 <nwkFrameInit>
     7c8:	40 d0       	rcall	.+128    	; 0x84a <nwkDataReqInit>
     7ca:	92 c1       	rjmp	.+804    	; 0xaf0 <nwkRouteInit>
     7cc:	08 95       	ret

000007ce <NWK_SetAddr>:
     7ce:	90 93 f9 1f 	sts	0x1FF9, r25	; 0x801ff9 <nwkIb+0x1>
     7d2:	80 93 f8 1f 	sts	0x1FF8, r24	; 0x801ff8 <nwkIb>
     7d6:	0c 94 28 0c 	jmp	0x1850	; 0x1850 <PHY_SetShortAddr>
     7da:	08 95       	ret

000007dc <NWK_SetPanId>:
     7dc:	90 93 fb 1f 	sts	0x1FFB, r25	; 0x801ffb <nwkIb+0x3>
     7e0:	80 93 fa 1f 	sts	0x1FFA, r24	; 0x801ffa <nwkIb+0x2>
     7e4:	0c 94 16 0c 	jmp	0x182c	; 0x182c <PHY_SetPanId>
     7e8:	08 95       	ret

000007ea <NWK_OpenEndpoint>:
     7ea:	e8 2f       	mov	r30, r24
     7ec:	f0 e0       	ldi	r31, 0x00	; 0
     7ee:	ee 0f       	add	r30, r30
     7f0:	ff 1f       	adc	r31, r31
     7f2:	e2 50       	subi	r30, 0x02	; 2
     7f4:	f0 4e       	sbci	r31, 0xE0	; 224
     7f6:	71 83       	std	Z+1, r23	; 0x01
     7f8:	60 83       	st	Z, r22
     7fa:	08 95       	ret

000007fc <NWK_TaskHandler>:
/*************************************************************************//**
  @brief Network layer task handler
*****************************************************************************/
void NWK_TaskHandler(void)
{
  nwkRxTaskHandler();
     7fc:	8b d3       	rcall	.+1814   	; 0xf14 <nwkRxTaskHandler>
  nwkTxTaskHandler();
     7fe:	20 d7       	rcall	.+3648   	; 0x1640 <nwkTxTaskHandler>
  nwkDataReqTaskHandler();
     800:	4d c0       	rjmp	.+154    	; 0x89c <nwkDataReqTaskHandler>
     802:	08 95       	ret

00000804 <nwkDataReqTxConf>:
  @brief Frame transmission confirmation handler
  @param[in] frame Pointer to the sent frame
*****************************************************************************/
static void nwkDataReqTxConf(NwkFrame_t *frame)
{
  for (NWK_DataReq_t *req = nwkDataReqQueue; req; req = req->next)
     804:	e0 91 49 0c 	lds	r30, 0x0C49	; 0x800c49 <nwkDataReqQueue>
     808:	f0 91 4a 0c 	lds	r31, 0x0C4A	; 0x800c4a <nwkDataReqQueue+0x1>
     80c:	30 97       	sbiw	r30, 0x00	; 0
     80e:	d9 f0       	breq	.+54     	; 0x846 <nwkDataReqTxConf+0x42>
  {
    if (req->frame == frame)
     810:	22 81       	ldd	r18, Z+2	; 0x02
     812:	33 81       	ldd	r19, Z+3	; 0x03
     814:	82 17       	cp	r24, r18
     816:	93 07       	cpc	r25, r19
     818:	89 f4       	brne	.+34     	; 0x83c <nwkDataReqTxConf+0x38>
     81a:	05 c0       	rjmp	.+10     	; 0x826 <nwkDataReqTxConf+0x22>
     81c:	22 81       	ldd	r18, Z+2	; 0x02
     81e:	33 81       	ldd	r19, Z+3	; 0x03
     820:	28 17       	cp	r18, r24
     822:	39 07       	cpc	r19, r25
     824:	59 f4       	brne	.+22     	; 0x83c <nwkDataReqTxConf+0x38>
    {
      req->status = frame->tx.status;
     826:	dc 01       	movw	r26, r24
     828:	ad 57       	subi	r26, 0x7D	; 125
     82a:	bf 4f       	sbci	r27, 0xFF	; 255
     82c:	2c 91       	ld	r18, X
     82e:	27 87       	std	Z+15, r18	; 0x0f
      req->control = frame->tx.control;
     830:	13 96       	adiw	r26, 0x03	; 3
     832:	2c 91       	ld	r18, X
     834:	20 8b       	std	Z+16, r18	; 0x10
      req->state = NWK_DATA_REQ_STATE_CONFIRM;
     836:	22 e0       	ldi	r18, 0x02	; 2
     838:	24 83       	std	Z+4, r18	; 0x04
      break;
     83a:	05 c0       	rjmp	.+10     	; 0x846 <nwkDataReqTxConf+0x42>
  @brief Frame transmission confirmation handler
  @param[in] frame Pointer to the sent frame
*****************************************************************************/
static void nwkDataReqTxConf(NwkFrame_t *frame)
{
  for (NWK_DataReq_t *req = nwkDataReqQueue; req; req = req->next)
     83c:	01 90       	ld	r0, Z+
     83e:	f0 81       	ld	r31, Z
     840:	e0 2d       	mov	r30, r0
     842:	30 97       	sbiw	r30, 0x00	; 0
     844:	59 f7       	brne	.-42     	; 0x81c <nwkDataReqTxConf+0x18>
      req->state = NWK_DATA_REQ_STATE_CONFIRM;
      break;
    }
  }

  nwkFrameFree(frame);
     846:	11 c1       	rjmp	.+546    	; 0xa6a <nwkFrameFree>
     848:	08 95       	ret

0000084a <nwkDataReqInit>:
/*************************************************************************//**
  @brief Initializes the Data Request module
*****************************************************************************/
void nwkDataReqInit(void)
{
  nwkDataReqQueue = NULL;
     84a:	10 92 4a 0c 	sts	0x0C4A, r1	; 0x800c4a <nwkDataReqQueue+0x1>
     84e:	10 92 49 0c 	sts	0x0C49, r1	; 0x800c49 <nwkDataReqQueue>
     852:	08 95       	ret

00000854 <NWK_DataReq>:
/*************************************************************************//**
  @brief Adds request @a req to the queue of outgoing requests
  @param[in] req Pointer to the request parameters
*****************************************************************************/
void NWK_DataReq(NWK_DataReq_t *req)
{
     854:	fc 01       	movw	r30, r24
  req->state = NWK_DATA_REQ_STATE_INITIAL;
     856:	14 82       	std	Z+4, r1	; 0x04
  req->status = NWK_SUCCESS_STATUS;
     858:	17 86       	std	Z+15, r1	; 0x0f
  req->frame = NULL;
     85a:	13 82       	std	Z+3, r1	; 0x03
     85c:	12 82       	std	Z+2, r1	; 0x02

  nwkIb.lock++;
     85e:	a8 ef       	ldi	r26, 0xF8	; 248
     860:	bf e1       	ldi	r27, 0x1F	; 31
     862:	96 96       	adiw	r26, 0x26	; 38
     864:	8d 91       	ld	r24, X+
     866:	9c 91       	ld	r25, X
     868:	97 97       	sbiw	r26, 0x27	; 39
     86a:	01 96       	adiw	r24, 0x01	; 1
     86c:	97 96       	adiw	r26, 0x27	; 39
     86e:	9c 93       	st	X, r25
     870:	8e 93       	st	-X, r24
     872:	96 97       	sbiw	r26, 0x26	; 38

  if (NULL == nwkDataReqQueue)
     874:	80 91 49 0c 	lds	r24, 0x0C49	; 0x800c49 <nwkDataReqQueue>
     878:	90 91 4a 0c 	lds	r25, 0x0C4A	; 0x800c4a <nwkDataReqQueue+0x1>
     87c:	00 97       	sbiw	r24, 0x00	; 0
     87e:	39 f4       	brne	.+14     	; 0x88e <NWK_DataReq+0x3a>
  {
    req->next = NULL;
     880:	11 82       	std	Z+1, r1	; 0x01
     882:	10 82       	st	Z, r1
    nwkDataReqQueue = req;
     884:	f0 93 4a 0c 	sts	0x0C4A, r31	; 0x800c4a <nwkDataReqQueue+0x1>
     888:	e0 93 49 0c 	sts	0x0C49, r30	; 0x800c49 <nwkDataReqQueue>
     88c:	08 95       	ret
  }
  else
  {
    req->next = nwkDataReqQueue;
     88e:	91 83       	std	Z+1, r25	; 0x01
     890:	80 83       	st	Z, r24
    nwkDataReqQueue = req;
     892:	f0 93 4a 0c 	sts	0x0C4A, r31	; 0x800c4a <nwkDataReqQueue+0x1>
     896:	e0 93 49 0c 	sts	0x0C49, r30	; 0x800c49 <nwkDataReqQueue>
     89a:	08 95       	ret

0000089c <nwkDataReqTaskHandler>:

/*************************************************************************//**
  @brief Data Request module task handler
*****************************************************************************/
void nwkDataReqTaskHandler(void)
{
     89c:	0f 93       	push	r16
     89e:	1f 93       	push	r17
     8a0:	cf 93       	push	r28
     8a2:	df 93       	push	r29
  for (NWK_DataReq_t *req = nwkDataReqQueue; req; req = req->next)
     8a4:	e0 91 49 0c 	lds	r30, 0x0C49	; 0x800c49 <nwkDataReqQueue>
     8a8:	f0 91 4a 0c 	lds	r31, 0x0C4A	; 0x800c4a <nwkDataReqQueue+0x1>
     8ac:	30 97       	sbiw	r30, 0x00	; 0
     8ae:	09 f4       	brne	.+2      	; 0x8b2 <nwkDataReqTaskHandler+0x16>
     8b0:	93 c0       	rjmp	.+294    	; 0x9d8 <nwkDataReqTaskHandler+0x13c>
     8b2:	ef 01       	movw	r28, r30
  {
    switch (req->state)
     8b4:	8c 81       	ldd	r24, Y+4	; 0x04
     8b6:	88 23       	and	r24, r24
     8b8:	21 f0       	breq	.+8      	; 0x8c2 <nwkDataReqTaskHandler+0x26>
     8ba:	82 30       	cpi	r24, 0x02	; 2
     8bc:	09 f4       	brne	.+2      	; 0x8c0 <nwkDataReqTaskHandler+0x24>
     8be:	66 c0       	rjmp	.+204    	; 0x98c <nwkDataReqTaskHandler+0xf0>
     8c0:	85 c0       	rjmp	.+266    	; 0x9cc <nwkDataReqTaskHandler+0x130>
*****************************************************************************/
static void nwkDataReqSendFrame(NWK_DataReq_t *req)
{
  NwkFrame_t *frame;

  if (NULL == (frame = nwkFrameAlloc()))
     8c2:	9a d0       	rcall	.+308    	; 0x9f8 <nwkFrameAlloc>
     8c4:	8c 01       	movw	r16, r24
     8c6:	00 97       	sbiw	r24, 0x00	; 0
     8c8:	21 f4       	brne	.+8      	; 0x8d2 <nwkDataReqTaskHandler+0x36>
  {
    req->state = NWK_DATA_REQ_STATE_CONFIRM;
     8ca:	82 e0       	ldi	r24, 0x02	; 2
     8cc:	8c 83       	std	Y+4, r24	; 0x04
    req->status = NWK_OUT_OF_MEMORY_STATUS;
     8ce:	8f 87       	std	Y+15, r24	; 0x0f
     8d0:	83 c0       	rjmp	.+262    	; 0x9d8 <nwkDataReqTaskHandler+0x13c>
    return;
  }

  req->frame = frame;
     8d2:	9b 83       	std	Y+3, r25	; 0x03
     8d4:	8a 83       	std	Y+2, r24	; 0x02
  req->state = NWK_DATA_REQ_STATE_WAIT_CONF;
     8d6:	81 e0       	ldi	r24, 0x01	; 1
     8d8:	8c 83       	std	Y+4, r24	; 0x04

  frame->tx.confirm = nwkDataReqTxConf;
     8da:	f8 01       	movw	r30, r16
     8dc:	e9 57       	subi	r30, 0x79	; 121
     8de:	ff 4f       	sbci	r31, 0xFF	; 255
     8e0:	82 e0       	ldi	r24, 0x02	; 2
     8e2:	94 e0       	ldi	r25, 0x04	; 4
     8e4:	91 83       	std	Z+1, r25	; 0x01
     8e6:	80 83       	st	Z, r24
  frame->tx.control = req->options & NWK_OPT_BROADCAST_PAN_ID ? NWK_TX_CONTROL_BROADCAST_PAN_ID : 0;
     8e8:	31 97       	sbiw	r30, 0x01	; 1
     8ea:	89 85       	ldd	r24, Y+9	; 0x09
     8ec:	82 fb       	bst	r24, 2
     8ee:	88 27       	eor	r24, r24
     8f0:	80 f9       	bld	r24, 0
     8f2:	80 83       	st	Z, r24

  frame->header.nwkFcf.ackRequest = req->options & NWK_OPT_ACK_REQUEST ? 1 : 0;
     8f4:	99 85       	ldd	r25, Y+9	; 0x09
     8f6:	d8 01       	movw	r26, r16
     8f8:	1b 96       	adiw	r26, 0x0b	; 11
     8fa:	8c 91       	ld	r24, X
     8fc:	1b 97       	sbiw	r26, 0x0b	; 11
     8fe:	90 fb       	bst	r25, 0
     900:	80 f9       	bld	r24, 0
     902:	1b 96       	adiw	r26, 0x0b	; 11
     904:	8c 93       	st	X, r24
     906:	1b 97       	sbiw	r26, 0x0b	; 11
  frame->header.nwkFcf.linkLocal = req->options & NWK_OPT_LINK_LOCAL ? 1 : 0;
     908:	99 85       	ldd	r25, Y+9	; 0x09
     90a:	93 fb       	bst	r25, 3
     90c:	99 27       	eor	r25, r25
     90e:	90 f9       	bld	r25, 0
     910:	90 fb       	bst	r25, 0
     912:	82 f9       	bld	r24, 2
     914:	1b 96       	adiw	r26, 0x0b	; 11
     916:	8c 93       	st	X, r24
     918:	1b 97       	sbiw	r26, 0x0b	; 11
    frame->payload += sizeof(NwkFrameMulticastHeader_t);
    frame->size += sizeof(NwkFrameMulticastHeader_t);
  }
#endif

  frame->header.nwkSeq = ++nwkIb.nwkSeqNum;
     91a:	e8 ef       	ldi	r30, 0xF8	; 248
     91c:	ff e1       	ldi	r31, 0x1F	; 31
     91e:	84 81       	ldd	r24, Z+4	; 0x04
     920:	8f 5f       	subi	r24, 0xFF	; 255
     922:	84 83       	std	Z+4, r24	; 0x04
     924:	1c 96       	adiw	r26, 0x0c	; 12
     926:	8c 93       	st	X, r24
     928:	1c 97       	sbiw	r26, 0x0c	; 12
  frame->header.nwkSrcAddr = nwkIb.addr;
     92a:	80 81       	ld	r24, Z
     92c:	91 81       	ldd	r25, Z+1	; 0x01
     92e:	1e 96       	adiw	r26, 0x0e	; 14
     930:	9c 93       	st	X, r25
     932:	8e 93       	st	-X, r24
     934:	1d 97       	sbiw	r26, 0x0d	; 13
  frame->header.nwkDstAddr = req->dstAddr;
     936:	8d 81       	ldd	r24, Y+5	; 0x05
     938:	9e 81       	ldd	r25, Y+6	; 0x06
     93a:	50 96       	adiw	r26, 0x10	; 16
     93c:	9c 93       	st	X, r25
     93e:	8e 93       	st	-X, r24
     940:	1f 97       	sbiw	r26, 0x0f	; 15
  frame->header.nwkSrcEndpoint = req->srcEndpoint;
     942:	88 85       	ldd	r24, Y+8	; 0x08
     944:	98 2f       	mov	r25, r24
     946:	9f 70       	andi	r25, 0x0F	; 15
     948:	51 96       	adiw	r26, 0x11	; 17
     94a:	8c 91       	ld	r24, X
     94c:	51 97       	sbiw	r26, 0x11	; 17
     94e:	80 7f       	andi	r24, 0xF0	; 240
     950:	89 2b       	or	r24, r25
     952:	51 96       	adiw	r26, 0x11	; 17
     954:	8c 93       	st	X, r24
     956:	51 97       	sbiw	r26, 0x11	; 17
  frame->header.nwkDstEndpoint = req->dstEndpoint;
     958:	9f 81       	ldd	r25, Y+7	; 0x07
     95a:	92 95       	swap	r25
     95c:	90 7f       	andi	r25, 0xF0	; 240
     95e:	8f 70       	andi	r24, 0x0F	; 15
     960:	89 2b       	or	r24, r25
     962:	51 96       	adiw	r26, 0x11	; 17
     964:	8c 93       	st	X, r24

  memcpy(frame->payload, req->data, req->size);
     966:	f8 01       	movw	r30, r16
     968:	ef 57       	subi	r30, 0x7F	; 127
     96a:	ff 4f       	sbci	r31, 0xFF	; 255
     96c:	4c 85       	ldd	r20, Y+12	; 0x0c
     96e:	50 e0       	ldi	r21, 0x00	; 0
     970:	6a 85       	ldd	r22, Y+10	; 0x0a
     972:	7b 85       	ldd	r23, Y+11	; 0x0b
     974:	80 81       	ld	r24, Z
     976:	91 81       	ldd	r25, Z+1	; 0x01
     978:	0e 94 67 0e 	call	0x1cce	; 0x1cce <memcpy>
  frame->size += req->size;
     97c:	f8 01       	movw	r30, r16
     97e:	91 81       	ldd	r25, Z+1	; 0x01
     980:	8c 85       	ldd	r24, Y+12	; 0x0c
     982:	89 0f       	add	r24, r25
     984:	81 83       	std	Z+1, r24	; 0x01

  nwkTxFrame(frame);
     986:	c8 01       	movw	r24, r16
     988:	82 d5       	rcall	.+2820   	; 0x148e <nwkTxFrame>
     98a:	26 c0       	rjmp	.+76     	; 0x9d8 <nwkDataReqTaskHandler+0x13c>
  @brief Confirms request @req to the application and remove it from the queue
  @param[in] req Pointer to the request parameters
*****************************************************************************/
static void nwkDataReqConfirm(NWK_DataReq_t *req)
{
  if (nwkDataReqQueue == req)
     98c:	ec 17       	cp	r30, r28
     98e:	fd 07       	cpc	r31, r29
     990:	41 f4       	brne	.+16     	; 0x9a2 <nwkDataReqTaskHandler+0x106>
  {
    nwkDataReqQueue = nwkDataReqQueue->next;
     992:	80 81       	ld	r24, Z
     994:	91 81       	ldd	r25, Z+1	; 0x01
     996:	90 93 4a 0c 	sts	0x0C4A, r25	; 0x800c4a <nwkDataReqQueue+0x1>
     99a:	80 93 49 0c 	sts	0x0C49, r24	; 0x800c49 <nwkDataReqQueue>
     99e:	0a c0       	rjmp	.+20     	; 0x9b4 <nwkDataReqTaskHandler+0x118>
  }
  else
  {
    NWK_DataReq_t *prev = nwkDataReqQueue;
    while (prev->next != req)
      prev = prev->next;
     9a0:	fc 01       	movw	r30, r24
    nwkDataReqQueue = nwkDataReqQueue->next;
  }
  else
  {
    NWK_DataReq_t *prev = nwkDataReqQueue;
    while (prev->next != req)
     9a2:	80 81       	ld	r24, Z
     9a4:	91 81       	ldd	r25, Z+1	; 0x01
     9a6:	8c 17       	cp	r24, r28
     9a8:	9d 07       	cpc	r25, r29
     9aa:	d1 f7       	brne	.-12     	; 0x9a0 <nwkDataReqTaskHandler+0x104>
      prev = prev->next;
    prev->next = ((NWK_DataReq_t *)prev->next)->next;
     9ac:	88 81       	ld	r24, Y
     9ae:	99 81       	ldd	r25, Y+1	; 0x01
     9b0:	91 83       	std	Z+1, r25	; 0x01
     9b2:	80 83       	st	Z, r24
  }

  nwkIb.lock--;
     9b4:	e8 ef       	ldi	r30, 0xF8	; 248
     9b6:	ff e1       	ldi	r31, 0x1F	; 31
     9b8:	86 a1       	ldd	r24, Z+38	; 0x26
     9ba:	97 a1       	ldd	r25, Z+39	; 0x27
     9bc:	01 97       	sbiw	r24, 0x01	; 1
     9be:	97 a3       	std	Z+39, r25	; 0x27
     9c0:	86 a3       	std	Z+38, r24	; 0x26
  req->confirm(req);
     9c2:	ed 85       	ldd	r30, Y+13	; 0x0d
     9c4:	fe 85       	ldd	r31, Y+14	; 0x0e
     9c6:	ce 01       	movw	r24, r28
     9c8:	19 95       	eicall
     9ca:	06 c0       	rjmp	.+12     	; 0x9d8 <nwkDataReqTaskHandler+0x13c>
/*************************************************************************//**
  @brief Data Request module task handler
*****************************************************************************/
void nwkDataReqTaskHandler(void)
{
  for (NWK_DataReq_t *req = nwkDataReqQueue; req; req = req->next)
     9cc:	09 90       	ld	r0, Y+
     9ce:	d8 81       	ld	r29, Y
     9d0:	c0 2d       	mov	r28, r0
     9d2:	20 97       	sbiw	r28, 0x00	; 0
     9d4:	09 f0       	breq	.+2      	; 0x9d8 <nwkDataReqTaskHandler+0x13c>
     9d6:	6e cf       	rjmp	.-292    	; 0x8b4 <nwkDataReqTaskHandler+0x18>

      default:
        break;
    };
  }
}
     9d8:	df 91       	pop	r29
     9da:	cf 91       	pop	r28
     9dc:	1f 91       	pop	r17
     9de:	0f 91       	pop	r16
     9e0:	08 95       	ret

000009e2 <nwkFrameInit>:

/*************************************************************************//**
  @brief Initializes the Frame module
*****************************************************************************/
void nwkFrameInit(void)
{
     9e2:	eb e4       	ldi	r30, 0x4B	; 75
     9e4:	fc e0       	ldi	r31, 0x0C	; 12
     9e6:	89 e5       	ldi	r24, 0x59	; 89
     9e8:	9c e1       	ldi	r25, 0x1C	; 28
  for (uint8_t i = 0; i < NWK_BUFFERS_AMOUNT; i++)
    nwkFrameFrames[i].state = NWK_FRAME_STATE_FREE;
     9ea:	10 82       	st	Z, r1
     9ec:	e7 57       	subi	r30, 0x77	; 119
     9ee:	ff 4f       	sbci	r31, 0xFF	; 255
/*************************************************************************//**
  @brief Initializes the Frame module
*****************************************************************************/
void nwkFrameInit(void)
{
  for (uint8_t i = 0; i < NWK_BUFFERS_AMOUNT; i++)
     9f0:	e8 17       	cp	r30, r24
     9f2:	f9 07       	cpc	r31, r25
     9f4:	d1 f7       	brne	.-12     	; 0x9ea <nwkFrameInit+0x8>
    nwkFrameFrames[i].state = NWK_FRAME_STATE_FREE;
}
     9f6:	08 95       	ret

000009f8 <nwkFrameAlloc>:
*****************************************************************************/
NwkFrame_t *nwkFrameAlloc(void)
{
  for (uint8_t i = 0; i < NWK_BUFFERS_AMOUNT; i++)
  {
    if (NWK_FRAME_STATE_FREE == nwkFrameFrames[i].state)
     9f8:	80 91 4b 0c 	lds	r24, 0x0C4B	; 0x800c4b <nwkFrameFrames>
     9fc:	88 23       	and	r24, r24
     9fe:	59 f0       	breq	.+22     	; 0xa16 <nwkFrameAlloc+0x1e>
     a00:	e4 ed       	ldi	r30, 0xD4	; 212
     a02:	fc e0       	ldi	r31, 0x0C	; 12
     a04:	69 e5       	ldi	r22, 0x59	; 89
     a06:	7c e1       	ldi	r23, 0x1C	; 28
     a08:	81 e0       	ldi	r24, 0x01	; 1
     a0a:	90 e0       	ldi	r25, 0x00	; 0
     a0c:	ac 01       	movw	r20, r24
     a0e:	20 81       	ld	r18, Z
     a10:	21 11       	cpse	r18, r1
     a12:	22 c0       	rjmp	.+68     	; 0xa58 <nwkFrameAlloc+0x60>
     a14:	02 c0       	rjmp	.+4      	; 0xa1a <nwkFrameAlloc+0x22>
     a16:	40 e0       	ldi	r20, 0x00	; 0
     a18:	50 e0       	ldi	r21, 0x00	; 0
    {
      memset(&nwkFrameFrames[i], 0, sizeof(NwkFrame_t));
     a1a:	69 e8       	ldi	r22, 0x89	; 137
     a1c:	64 9f       	mul	r22, r20
     a1e:	90 01       	movw	r18, r0
     a20:	65 9f       	mul	r22, r21
     a22:	30 0d       	add	r19, r0
     a24:	11 24       	eor	r1, r1
     a26:	c9 01       	movw	r24, r18
     a28:	85 5b       	subi	r24, 0xB5	; 181
     a2a:	93 4f       	sbci	r25, 0xF3	; 243
     a2c:	fc 01       	movw	r30, r24
     a2e:	11 92       	st	Z+, r1
     a30:	6a 95       	dec	r22
     a32:	e9 f7       	brne	.-6      	; 0xa2e <nwkFrameAlloc+0x36>
      nwkFrameFrames[i].size = sizeof(NwkFrameHeader_t);
     a34:	40 e1       	ldi	r20, 0x10	; 16
     a36:	fc 01       	movw	r30, r24
     a38:	41 83       	std	Z+1, r20	; 0x01
      nwkFrameFrames[i].payload = nwkFrameFrames[i].data + sizeof(NwkFrameHeader_t);
     a3a:	ef 57       	subi	r30, 0x7F	; 127
     a3c:	ff 4f       	sbci	r31, 0xFF	; 255
     a3e:	23 5a       	subi	r18, 0xA3	; 163
     a40:	33 4f       	sbci	r19, 0xF3	; 243
     a42:	31 83       	std	Z+1, r19	; 0x01
     a44:	20 83       	st	Z, r18
      nwkIb.lock++;
     a46:	e8 ef       	ldi	r30, 0xF8	; 248
     a48:	ff e1       	ldi	r31, 0x1F	; 31
     a4a:	26 a1       	ldd	r18, Z+38	; 0x26
     a4c:	37 a1       	ldd	r19, Z+39	; 0x27
     a4e:	2f 5f       	subi	r18, 0xFF	; 255
     a50:	3f 4f       	sbci	r19, 0xFF	; 255
     a52:	37 a3       	std	Z+39, r19	; 0x27
     a54:	26 a3       	std	Z+38, r18	; 0x26
      return &nwkFrameFrames[i];
     a56:	08 95       	ret
     a58:	01 96       	adiw	r24, 0x01	; 1
     a5a:	e7 57       	subi	r30, 0x77	; 119
     a5c:	ff 4f       	sbci	r31, 0xFF	; 255
  @brief Allocates an empty frame from the buffer pool
  @return Pointer to the frame or @c NULL if there are no free frames
*****************************************************************************/
NwkFrame_t *nwkFrameAlloc(void)
{
  for (uint8_t i = 0; i < NWK_BUFFERS_AMOUNT; i++)
     a5e:	e6 17       	cp	r30, r22
     a60:	f7 07       	cpc	r31, r23
     a62:	a1 f6       	brne	.-88     	; 0xa0c <nwkFrameAlloc+0x14>
      nwkFrameFrames[i].payload = nwkFrameFrames[i].data + sizeof(NwkFrameHeader_t);
      nwkIb.lock++;
      return &nwkFrameFrames[i];
    }
  }
  return NULL;
     a64:	80 e0       	ldi	r24, 0x00	; 0
     a66:	90 e0       	ldi	r25, 0x00	; 0
}
     a68:	08 95       	ret

00000a6a <nwkFrameFree>:
  @brief Frees a @a frame and returns it to the buffer pool
  @param[in] frame Pointer to the frame to be freed
*****************************************************************************/
void nwkFrameFree(NwkFrame_t *frame)
{
  frame->state = NWK_FRAME_STATE_FREE;
     a6a:	fc 01       	movw	r30, r24
     a6c:	10 82       	st	Z, r1
  nwkIb.lock--;
     a6e:	e8 ef       	ldi	r30, 0xF8	; 248
     a70:	ff e1       	ldi	r31, 0x1F	; 31
     a72:	86 a1       	ldd	r24, Z+38	; 0x26
     a74:	97 a1       	ldd	r25, Z+39	; 0x27
     a76:	01 97       	sbiw	r24, 0x01	; 1
     a78:	97 a3       	std	Z+39, r25	; 0x27
     a7a:	86 a3       	std	Z+38, r24	; 0x26
     a7c:	08 95       	ret

00000a7e <nwkFrameNext>:
  @param[in] frame Pointer to the current frame or @c NULL for the first frame
  @return Next allocated frame or @c NULL if there are no more frames
*****************************************************************************/
NwkFrame_t *nwkFrameNext(NwkFrame_t *frame)
{
  if (NULL == frame)
     a7e:	00 97       	sbiw	r24, 0x00	; 0
     a80:	41 f0       	breq	.+16     	; 0xa92 <nwkFrameNext+0x14>
    frame = nwkFrameFrames;
  else
    frame++;
     a82:	fc 01       	movw	r30, r24
     a84:	e7 57       	subi	r30, 0x77	; 119
     a86:	ff 4f       	sbci	r31, 0xFF	; 255

  for (; frame < &nwkFrameFrames[NWK_BUFFERS_AMOUNT]; frame++)
     a88:	8c e1       	ldi	r24, 0x1C	; 28
     a8a:	e9 35       	cpi	r30, 0x59	; 89
     a8c:	f8 07       	cpc	r31, r24
     a8e:	18 f0       	brcs	.+6      	; 0xa96 <nwkFrameNext+0x18>
     a90:	12 c0       	rjmp	.+36     	; 0xab6 <nwkFrameNext+0x38>
  @return Next allocated frame or @c NULL if there are no more frames
*****************************************************************************/
NwkFrame_t *nwkFrameNext(NwkFrame_t *frame)
{
  if (NULL == frame)
    frame = nwkFrameFrames;
     a92:	eb e4       	ldi	r30, 0x4B	; 75
     a94:	fc e0       	ldi	r31, 0x0C	; 12
  else
    frame++;

  for (; frame < &nwkFrameFrames[NWK_BUFFERS_AMOUNT]; frame++)
  {
    if (NWK_FRAME_STATE_FREE != frame->state)
     a96:	80 81       	ld	r24, Z
     a98:	88 23       	and	r24, r24
     a9a:	21 f0       	breq	.+8      	; 0xaa4 <nwkFrameNext+0x26>
     a9c:	0f c0       	rjmp	.+30     	; 0xabc <nwkFrameNext+0x3e>
     a9e:	80 81       	ld	r24, Z
     aa0:	81 11       	cpse	r24, r1
     aa2:	0f c0       	rjmp	.+30     	; 0xac2 <nwkFrameNext+0x44>
  if (NULL == frame)
    frame = nwkFrameFrames;
  else
    frame++;

  for (; frame < &nwkFrameFrames[NWK_BUFFERS_AMOUNT]; frame++)
     aa4:	e7 57       	subi	r30, 0x77	; 119
     aa6:	ff 4f       	sbci	r31, 0xFF	; 255
     aa8:	8c e1       	ldi	r24, 0x1C	; 28
     aaa:	e9 35       	cpi	r30, 0x59	; 89
     aac:	f8 07       	cpc	r31, r24
     aae:	b8 f3       	brcs	.-18     	; 0xa9e <nwkFrameNext+0x20>
  {
    if (NWK_FRAME_STATE_FREE != frame->state)
      return frame;
  }

  return NULL;
     ab0:	80 e0       	ldi	r24, 0x00	; 0
     ab2:	90 e0       	ldi	r25, 0x00	; 0
     ab4:	08 95       	ret
     ab6:	80 e0       	ldi	r24, 0x00	; 0
     ab8:	90 e0       	ldi	r25, 0x00	; 0
     aba:	08 95       	ret
  else
    frame++;

  for (; frame < &nwkFrameFrames[NWK_BUFFERS_AMOUNT]; frame++)
  {
    if (NWK_FRAME_STATE_FREE != frame->state)
     abc:	8e 2f       	mov	r24, r30
     abe:	9f 2f       	mov	r25, r31
     ac0:	08 95       	ret
  if (NULL == frame)
    frame = nwkFrameFrames;
  else
    frame++;

  for (; frame < &nwkFrameFrames[NWK_BUFFERS_AMOUNT]; frame++)
     ac2:	8e 2f       	mov	r24, r30
     ac4:	9f 2f       	mov	r25, r31
    if (NWK_FRAME_STATE_FREE != frame->state)
      return frame;
  }

  return NULL;
}
     ac6:	08 95       	ret

00000ac8 <nwkFrameCommandInit>:
/*************************************************************************//**
  @brief Sets default parameters for the the command @a frame
  @param[in] frame Pointer to the command frame
*****************************************************************************/
void nwkFrameCommandInit(NwkFrame_t *frame)
{
     ac8:	fc 01       	movw	r30, r24
  frame->tx.status = NWK_SUCCESS_STATUS;
     aca:	dc 01       	movw	r26, r24
     acc:	ad 57       	subi	r26, 0x7D	; 125
     ace:	bf 4f       	sbci	r27, 0xFF	; 255
     ad0:	1c 92       	st	X, r1
  frame->header.nwkSeq = ++nwkIb.nwkSeqNum;
     ad2:	a8 ef       	ldi	r26, 0xF8	; 248
     ad4:	bf e1       	ldi	r27, 0x1F	; 31
     ad6:	14 96       	adiw	r26, 0x04	; 4
     ad8:	9c 91       	ld	r25, X
     ada:	14 97       	sbiw	r26, 0x04	; 4
     adc:	9f 5f       	subi	r25, 0xFF	; 255
     ade:	14 96       	adiw	r26, 0x04	; 4
     ae0:	9c 93       	st	X, r25
     ae2:	14 97       	sbiw	r26, 0x04	; 4
     ae4:	94 87       	std	Z+12, r25	; 0x0c
  frame->header.nwkSrcAddr = nwkIb.addr;
     ae6:	8d 91       	ld	r24, X+
     ae8:	9c 91       	ld	r25, X
     aea:	96 87       	std	Z+14, r25	; 0x0e
     aec:	85 87       	std	Z+13, r24	; 0x0d
     aee:	08 95       	ret

00000af0 <nwkRouteInit>:
  entry->nextHopAddr = nextHop;
  entry->multicast = multicast;
  entry->score = NWK_ROUTE_DEFAULT_SCORE;
  entry->rank = NWK_ROUTE_DEFAULT_RANK;
  entry->lqi = lqi;
}
     af0:	aa e5       	ldi	r26, 0x5A	; 90
     af2:	bc e1       	ldi	r27, 0x1C	; 28
     af4:	80 e0       	ldi	r24, 0x00	; 0
     af6:	90 e0       	ldi	r25, 0x00	; 0
     af8:	4f ef       	ldi	r20, 0xFF	; 255
     afa:	5f ef       	ldi	r21, 0xFF	; 255
     afc:	11 96       	adiw	r26, 0x01	; 1
     afe:	5c 93       	st	X, r21
     b00:	4e 93       	st	-X, r20
     b02:	fc 01       	movw	r30, r24
     b04:	ee 0f       	add	r30, r30
     b06:	ff 1f       	adc	r31, r31
     b08:	ee 0f       	add	r30, r30
     b0a:	ff 1f       	adc	r31, r31
     b0c:	ee 0f       	add	r30, r30
     b0e:	ff 1f       	adc	r31, r31
     b10:	e8 1b       	sub	r30, r24
     b12:	f9 0b       	sbc	r31, r25
     b14:	e7 5a       	subi	r30, 0xA7	; 167
     b16:	f3 4e       	sbci	r31, 0xE3	; 227
     b18:	20 81       	ld	r18, Z
     b1a:	2e 7f       	andi	r18, 0xFE	; 254
     b1c:	20 83       	st	Z, r18
     b1e:	14 96       	adiw	r26, 0x04	; 4
     b20:	1c 92       	st	X, r1
     b22:	14 97       	sbiw	r26, 0x04	; 4
     b24:	01 96       	adiw	r24, 0x01	; 1
     b26:	17 96       	adiw	r26, 0x07	; 7
     b28:	84 36       	cpi	r24, 0x64	; 100
     b2a:	91 05       	cpc	r25, r1
     b2c:	39 f7       	brne	.-50     	; 0xafc <nwkRouteInit+0xc>
     b2e:	08 95       	ret

00000b30 <NWK_RouteFindEntry>:
     b30:	0f 93       	push	r16
     b32:	1f 93       	push	r17
     b34:	cf 93       	push	r28
     b36:	df 93       	push	r29
     b38:	ea e5       	ldi	r30, 0x5A	; 90
     b3a:	fc e1       	ldi	r31, 0x1C	; 28
     b3c:	20 e0       	ldi	r18, 0x00	; 0
     b3e:	30 e0       	ldi	r19, 0x00	; 0
     b40:	06 2f       	mov	r16, r22
     b42:	10 e0       	ldi	r17, 0x00	; 0
     b44:	40 81       	ld	r20, Z
     b46:	51 81       	ldd	r21, Z+1	; 0x01
     b48:	48 17       	cp	r20, r24
     b4a:	59 07       	cpc	r21, r25
     b4c:	b1 f4       	brne	.+44     	; 0xb7a <NWK_RouteFindEntry+0x4a>
     b4e:	d9 01       	movw	r26, r18
     b50:	aa 0f       	add	r26, r26
     b52:	bb 1f       	adc	r27, r27
     b54:	aa 0f       	add	r26, r26
     b56:	bb 1f       	adc	r27, r27
     b58:	aa 0f       	add	r26, r26
     b5a:	bb 1f       	adc	r27, r27
     b5c:	a2 1b       	sub	r26, r18
     b5e:	b3 0b       	sbc	r27, r19
     b60:	a7 5a       	subi	r26, 0xA7	; 167
     b62:	b3 4e       	sbci	r27, 0xE3	; 227
     b64:	4c 91       	ld	r20, X
     b66:	46 95       	lsr	r20
     b68:	41 70       	andi	r20, 0x01	; 1
     b6a:	c4 2f       	mov	r28, r20
     b6c:	40 e0       	ldi	r20, 0x00	; 0
     b6e:	d4 2f       	mov	r29, r20
     b70:	c0 17       	cp	r28, r16
     b72:	d1 07       	cpc	r29, r17
     b74:	11 f4       	brne	.+4      	; 0xb7a <NWK_RouteFindEntry+0x4a>
     b76:	cd 01       	movw	r24, r26
     b78:	08 c0       	rjmp	.+16     	; 0xb8a <NWK_RouteFindEntry+0x5a>
     b7a:	2f 5f       	subi	r18, 0xFF	; 255
     b7c:	3f 4f       	sbci	r19, 0xFF	; 255
     b7e:	37 96       	adiw	r30, 0x07	; 7
     b80:	24 36       	cpi	r18, 0x64	; 100
     b82:	31 05       	cpc	r19, r1
     b84:	f9 f6       	brne	.-66     	; 0xb44 <NWK_RouteFindEntry+0x14>
     b86:	80 e0       	ldi	r24, 0x00	; 0
     b88:	90 e0       	ldi	r25, 0x00	; 0
     b8a:	df 91       	pop	r29
     b8c:	cf 91       	pop	r28
     b8e:	1f 91       	pop	r17
     b90:	0f 91       	pop	r16
     b92:	08 95       	ret

00000b94 <NWK_RouteNewEntry>:
     b94:	a0 e0       	ldi	r26, 0x00	; 0
     b96:	b0 e0       	ldi	r27, 0x00	; 0
     b98:	e9 e5       	ldi	r30, 0x59	; 89
     b9a:	fc e1       	ldi	r31, 0x1C	; 28
     b9c:	80 81       	ld	r24, Z
     b9e:	80 fd       	sbrc	r24, 0
     ba0:	0d c0       	rjmp	.+26     	; 0xbbc <NWK_RouteNewEntry+0x28>
     ba2:	85 81       	ldd	r24, Z+5	; 0x05
     ba4:	88 23       	and	r24, r24
     ba6:	81 f0       	breq	.+32     	; 0xbc8 <NWK_RouteNewEntry+0x34>
     ba8:	10 97       	sbiw	r26, 0x00	; 0
     baa:	39 f0       	breq	.+14     	; 0xbba <NWK_RouteNewEntry+0x26>
     bac:	15 96       	adiw	r26, 0x05	; 5
     bae:	9c 91       	ld	r25, X
     bb0:	15 97       	sbiw	r26, 0x05	; 5
     bb2:	89 17       	cp	r24, r25
     bb4:	18 f4       	brcc	.+6      	; 0xbbc <NWK_RouteNewEntry+0x28>
     bb6:	df 01       	movw	r26, r30
     bb8:	01 c0       	rjmp	.+2      	; 0xbbc <NWK_RouteNewEntry+0x28>
     bba:	df 01       	movw	r26, r30
     bbc:	37 96       	adiw	r30, 0x07	; 7
     bbe:	8f e1       	ldi	r24, 0x1F	; 31
     bc0:	e5 31       	cpi	r30, 0x15	; 21
     bc2:	f8 07       	cpc	r31, r24
     bc4:	59 f7       	brne	.-42     	; 0xb9c <NWK_RouteNewEntry+0x8>
     bc6:	fd 01       	movw	r30, r26
     bc8:	80 81       	ld	r24, Z
     bca:	8d 70       	andi	r24, 0x0D	; 13
     bcc:	80 63       	ori	r24, 0x30	; 48
     bce:	80 83       	st	Z, r24
     bd0:	80 e8       	ldi	r24, 0x80	; 128
     bd2:	85 83       	std	Z+5, r24	; 0x05
     bd4:	cf 01       	movw	r24, r30
     bd6:	08 95       	ret

00000bd8 <NWK_RouteFreeEntry>:
     bd8:	fc 01       	movw	r30, r24
     bda:	80 81       	ld	r24, Z
     bdc:	80 fd       	sbrc	r24, 0
     bde:	05 c0       	rjmp	.+10     	; 0xbea <NWK_RouteFreeEntry+0x12>
     be0:	8f ef       	ldi	r24, 0xFF	; 255
     be2:	9f ef       	ldi	r25, 0xFF	; 255
     be4:	92 83       	std	Z+2, r25	; 0x02
     be6:	81 83       	std	Z+1, r24	; 0x01
     be8:	15 82       	std	Z+5, r1	; 0x05
     bea:	08 95       	ret

00000bec <NWK_RouteNextHop>:
     bec:	a1 df       	rcall	.-190    	; 0xb30 <NWK_RouteFindEntry>
     bee:	00 97       	sbiw	r24, 0x00	; 0
     bf0:	21 f0       	breq	.+8      	; 0xbfa <NWK_RouteNextHop+0xe>
     bf2:	fc 01       	movw	r30, r24
     bf4:	83 81       	ldd	r24, Z+3	; 0x03
     bf6:	94 81       	ldd	r25, Z+4	; 0x04
     bf8:	08 95       	ret
     bfa:	8f ef       	ldi	r24, 0xFF	; 255
     bfc:	9f ef       	ldi	r25, 0xFF	; 255
     bfe:	08 95       	ret

00000c00 <nwkRouteRemove>:
*****************************************************************************/
void nwkRouteRemove(uint16_t dst, uint8_t multicast)
{
  NWK_RouteTableEntry_t *entry;

  entry = NWK_RouteFindEntry(dst, multicast);
     c00:	97 df       	rcall	.-210    	; 0xb30 <NWK_RouteFindEntry>
  if (entry)
     c02:	00 97       	sbiw	r24, 0x00	; 0
    NWK_RouteFreeEntry(entry);
     c04:	09 f0       	breq	.+2      	; 0xc08 <nwkRouteRemove+0x8>
     c06:	e8 cf       	rjmp	.-48     	; 0xbd8 <NWK_RouteFreeEntry>
     c08:	08 95       	ret

00000c0a <nwkRouteFrameReceived>:
}

/*************************************************************************//**
*****************************************************************************/
void nwkRouteFrameReceived(NwkFrame_t *frame)
{
     c0a:	0f 93       	push	r16
     c0c:	1f 93       	push	r17
     c0e:	cf 93       	push	r28
     c10:	df 93       	push	r29
     c12:	fc 01       	movw	r30, r24
#ifndef NWK_ENABLE_ROUTE_DISCOVERY
  NwkFrameHeader_t *header = &frame->header;
  NWK_RouteTableEntry_t *entry;

  if ((header->macSrcAddr & NWK_ROUTE_NON_ROUTING) &&
     c14:	01 85       	ldd	r16, Z+9	; 0x09
     c16:	12 85       	ldd	r17, Z+10	; 0x0a
     c18:	11 23       	and	r17, r17
     c1a:	2c f4       	brge	.+10     	; 0xc26 <nwkRouteFrameReceived+0x1c>
     c1c:	85 85       	ldd	r24, Z+13	; 0x0d
     c1e:	96 85       	ldd	r25, Z+14	; 0x0e
     c20:	08 17       	cp	r16, r24
     c22:	19 07       	cpc	r17, r25
     c24:	e1 f5       	brne	.+120    	; 0xc9e <nwkRouteFrameReceived+0x94>
      (header->macSrcAddr != header->nwkSrcAddr))
    return;

  if (NWK_BROADCAST_PANID == header->macDstPanId)
     c26:	85 81       	ldd	r24, Z+5	; 0x05
     c28:	96 81       	ldd	r25, Z+6	; 0x06
     c2a:	01 96       	adiw	r24, 0x01	; 1
     c2c:	c1 f1       	breq	.+112    	; 0xc9e <nwkRouteFrameReceived+0x94>
     c2e:	ef 01       	movw	r28, r30
    return;

  entry = NWK_RouteFindEntry(header->nwkSrcAddr, false);
     c30:	60 e0       	ldi	r22, 0x00	; 0
     c32:	85 85       	ldd	r24, Z+13	; 0x0d
     c34:	96 85       	ldd	r25, Z+14	; 0x0e
     c36:	7c df       	rcall	.-264    	; 0xb30 <NWK_RouteFindEntry>
     c38:	fc 01       	movw	r30, r24

  if (entry)
     c3a:	89 2b       	or	r24, r25
     c3c:	a1 f0       	breq	.+40     	; 0xc66 <nwkRouteFrameReceived+0x5c>
  {
    bool discovery = (NWK_BROADCAST_ADDR == header->macDstAddr &&
     c3e:	8f 81       	ldd	r24, Y+7	; 0x07
     c40:	98 85       	ldd	r25, Y+8	; 0x08
     c42:	01 96       	adiw	r24, 0x01	; 1
     c44:	f9 f4       	brne	.+62     	; 0xc84 <nwkRouteFrameReceived+0x7a>
     c46:	20 91 f8 1f 	lds	r18, 0x1FF8	; 0x801ff8 <nwkIb>
     c4a:	30 91 f9 1f 	lds	r19, 0x1FF9	; 0x801ff9 <nwkIb+0x1>
     c4e:	8f 85       	ldd	r24, Y+15	; 0x0f
     c50:	98 89       	ldd	r25, Y+16	; 0x10
     c52:	28 17       	cp	r18, r24
     c54:	39 07       	cpc	r19, r25
     c56:	b1 f4       	brne	.+44     	; 0xc84 <nwkRouteFrameReceived+0x7a>
        nwkIb.addr == header->nwkDstAddr);

    if ((entry->nextHopAddr != header->macSrcAddr && frame->rx.lqi > entry->lqi) || discovery)
    {
      entry->nextHopAddr = header->macSrcAddr;
     c58:	14 83       	std	Z+4, r17	; 0x04
     c5a:	03 83       	std	Z+3, r16	; 0x03
      entry->score = NWK_ROUTE_DEFAULT_SCORE;
     c5c:	80 81       	ld	r24, Z
     c5e:	8f 70       	andi	r24, 0x0F	; 15
     c60:	80 63       	ori	r24, 0x30	; 48
     c62:	80 83       	st	Z, r24
    }
  }
  else
  {
    entry = NWK_RouteNewEntry();
     c64:	0a c0       	rjmp	.+20     	; 0xc7a <nwkRouteFrameReceived+0x70>
     c66:	96 df       	rcall	.-212    	; 0xb94 <NWK_RouteNewEntry>
     c68:	fc 01       	movw	r30, r24

    entry->dstAddr = header->nwkSrcAddr;
     c6a:	8d 85       	ldd	r24, Y+13	; 0x0d
     c6c:	9e 85       	ldd	r25, Y+14	; 0x0e
     c6e:	92 83       	std	Z+2, r25	; 0x02
     c70:	81 83       	std	Z+1, r24	; 0x01
    entry->nextHopAddr = header->macSrcAddr;
     c72:	89 85       	ldd	r24, Y+9	; 0x09
     c74:	9a 85       	ldd	r25, Y+10	; 0x0a
     c76:	94 83       	std	Z+4, r25	; 0x04
     c78:	83 83       	std	Z+3, r24	; 0x03
  }

  entry->lqi = frame->rx.lqi;
     c7a:	cd 57       	subi	r28, 0x7D	; 125
     c7c:	df 4f       	sbci	r29, 0xFF	; 255
     c7e:	88 81       	ld	r24, Y
     c80:	86 83       	std	Z+6, r24	; 0x06
     c82:	0d c0       	rjmp	.+26     	; 0xc9e <nwkRouteFrameReceived+0x94>
  if (entry)
  {
    bool discovery = (NWK_BROADCAST_ADDR == header->macDstAddr &&
        nwkIb.addr == header->nwkDstAddr);

    if ((entry->nextHopAddr != header->macSrcAddr && frame->rx.lqi > entry->lqi) || discovery)
     c84:	83 81       	ldd	r24, Z+3	; 0x03
     c86:	94 81       	ldd	r25, Z+4	; 0x04
     c88:	08 17       	cp	r16, r24
     c8a:	19 07       	cpc	r17, r25
     c8c:	b1 f3       	breq	.-20     	; 0xc7a <nwkRouteFrameReceived+0x70>
     c8e:	96 81       	ldd	r25, Z+6	; 0x06
     c90:	de 01       	movw	r26, r28
     c92:	ad 57       	subi	r26, 0x7D	; 125
     c94:	bf 4f       	sbci	r27, 0xFF	; 255
     c96:	8c 91       	ld	r24, X
     c98:	98 17       	cp	r25, r24
     c9a:	f0 f2       	brcs	.-68     	; 0xc58 <nwkRouteFrameReceived+0x4e>
     c9c:	ee cf       	rjmp	.-36     	; 0xc7a <nwkRouteFrameReceived+0x70>

  entry->lqi = frame->rx.lqi;
#else
  (void)frame;
#endif
}
     c9e:	df 91       	pop	r29
     ca0:	cf 91       	pop	r28
     ca2:	1f 91       	pop	r17
     ca4:	0f 91       	pop	r16
     ca6:	08 95       	ret

00000ca8 <nwkRouteFrameSent>:

/*************************************************************************//**
*****************************************************************************/
void nwkRouteFrameSent(NwkFrame_t *frame)
{
     ca8:	cf 93       	push	r28
     caa:	df 93       	push	r29
     cac:	fc 01       	movw	r30, r24
  NWK_RouteTableEntry_t *entry;

  if (NWK_BROADCAST_ADDR == frame->header.nwkDstAddr)
     cae:	87 85       	ldd	r24, Z+15	; 0x0f
     cb0:	90 89       	ldd	r25, Z+16	; 0x10
     cb2:	8f 3f       	cpi	r24, 0xFF	; 255
     cb4:	2f ef       	ldi	r18, 0xFF	; 255
     cb6:	92 07       	cpc	r25, r18
     cb8:	d9 f1       	breq	.+118    	; 0xd30 <nwkRouteFrameSent+0x88>
     cba:	ef 01       	movw	r28, r30
    return;

  entry = NWK_RouteFindEntry(frame->header.nwkDstAddr, frame->header.nwkFcf.multicast);
     cbc:	63 85       	ldd	r22, Z+11	; 0x0b
     cbe:	63 fb       	bst	r22, 3
     cc0:	66 27       	eor	r22, r22
     cc2:	60 f9       	bld	r22, 0
     cc4:	35 df       	rcall	.-406    	; 0xb30 <NWK_RouteFindEntry>
     cc6:	dc 01       	movw	r26, r24

  if (NULL == entry || entry->fixed)
     cc8:	89 2b       	or	r24, r25
     cca:	91 f1       	breq	.+100    	; 0xd30 <nwkRouteFrameSent+0x88>
     ccc:	8c 91       	ld	r24, X
     cce:	80 fd       	sbrc	r24, 0
     cd0:	2f c0       	rjmp	.+94     	; 0xd30 <nwkRouteFrameSent+0x88>
    return;

  if (NWK_SUCCESS_STATUS == frame->tx.status)
     cd2:	fe 01       	movw	r30, r28
     cd4:	ed 57       	subi	r30, 0x7D	; 125
     cd6:	ff 4f       	sbci	r31, 0xFF	; 255
     cd8:	80 81       	ld	r24, Z
     cda:	81 11       	cpse	r24, r1
     cdc:	19 c0       	rjmp	.+50     	; 0xd10 <nwkRouteFrameSent+0x68>
  {
    entry->score = NWK_ROUTE_DEFAULT_SCORE;
     cde:	8c 91       	ld	r24, X
     ce0:	8f 70       	andi	r24, 0x0F	; 15
     ce2:	80 63       	ori	r24, 0x30	; 48
     ce4:	8c 93       	st	X, r24

    if (NWK_ROUTE_MAX_RANK == ++entry->rank)
     ce6:	15 96       	adiw	r26, 0x05	; 5
     ce8:	8c 91       	ld	r24, X
     cea:	15 97       	sbiw	r26, 0x05	; 5
     cec:	8f 5f       	subi	r24, 0xFF	; 255
     cee:	15 96       	adiw	r26, 0x05	; 5
     cf0:	8c 93       	st	X, r24
     cf2:	8f 3f       	cpi	r24, 0xFF	; 255
     cf4:	e9 f4       	brne	.+58     	; 0xd30 <nwkRouteFrameSent+0x88>
     cf6:	ee e5       	ldi	r30, 0x5E	; 94
     cf8:	fc e1       	ldi	r31, 0x1C	; 28
     cfa:	2a e1       	ldi	r18, 0x1A	; 26
     cfc:	3f e1       	ldi	r19, 0x1F	; 31
/*************************************************************************//**
*****************************************************************************/
static void nwkRouteNormalizeRanks(void)
{
  for (uint8_t i = 0; i < NWK_ROUTE_TABLE_SIZE; i++)
    nwkRouteTable[i].rank = (nwkRouteTable[i].rank >> 1) + 1;
     cfe:	80 81       	ld	r24, Z
     d00:	86 95       	lsr	r24
     d02:	8f 5f       	subi	r24, 0xFF	; 255
     d04:	80 83       	st	Z, r24
     d06:	37 96       	adiw	r30, 0x07	; 7

/*************************************************************************//**
*****************************************************************************/
static void nwkRouteNormalizeRanks(void)
{
  for (uint8_t i = 0; i < NWK_ROUTE_TABLE_SIZE; i++)
     d08:	e2 17       	cp	r30, r18
     d0a:	f3 07       	cpc	r31, r19
     d0c:	c1 f7       	brne	.-16     	; 0xcfe <nwkRouteFrameSent+0x56>
     d0e:	10 c0       	rjmp	.+32     	; 0xd30 <nwkRouteFrameSent+0x88>
    if (NWK_ROUTE_MAX_RANK == ++entry->rank)
      nwkRouteNormalizeRanks();
  }
  else
  {
    if (0 == --entry->score)
     d10:	9c 91       	ld	r25, X
     d12:	89 2f       	mov	r24, r25
     d14:	82 95       	swap	r24
     d16:	8f 70       	andi	r24, 0x0F	; 15
     d18:	81 5f       	subi	r24, 0xF1	; 241
     d1a:	8f 70       	andi	r24, 0x0F	; 15
     d1c:	28 2f       	mov	r18, r24
     d1e:	22 95       	swap	r18
     d20:	20 7f       	andi	r18, 0xF0	; 240
     d22:	9f 70       	andi	r25, 0x0F	; 15
     d24:	92 2b       	or	r25, r18
     d26:	9c 93       	st	X, r25
     d28:	81 11       	cpse	r24, r1
     d2a:	02 c0       	rjmp	.+4      	; 0xd30 <nwkRouteFrameSent+0x88>
      NWK_RouteFreeEntry(entry);
     d2c:	cd 01       	movw	r24, r26
     d2e:	54 df       	rcall	.-344    	; 0xbd8 <NWK_RouteFreeEntry>
  }
}
     d30:	df 91       	pop	r29
     d32:	cf 91       	pop	r28
     d34:	08 95       	ret

00000d36 <nwkRoutePrepareTx>:

/*************************************************************************//**
*****************************************************************************/
void nwkRoutePrepareTx(NwkFrame_t *frame)
{
     d36:	cf 93       	push	r28
     d38:	df 93       	push	r29
     d3a:	fc 01       	movw	r30, r24
  NwkFrameHeader_t *header = &frame->header;

  if (NWK_BROADCAST_ADDR == header->nwkDstAddr)
     d3c:	87 85       	ldd	r24, Z+15	; 0x0f
     d3e:	90 89       	ldd	r25, Z+16	; 0x10
     d40:	8f 3f       	cpi	r24, 0xFF	; 255
     d42:	2f ef       	ldi	r18, 0xFF	; 255
     d44:	92 07       	cpc	r25, r18
     d46:	29 f4       	brne	.+10     	; 0xd52 <nwkRoutePrepareTx+0x1c>
  {
    header->macDstAddr = NWK_BROADCAST_ADDR;
     d48:	8f ef       	ldi	r24, 0xFF	; 255
     d4a:	9f ef       	ldi	r25, 0xFF	; 255
     d4c:	90 87       	std	Z+8, r25	; 0x08
     d4e:	87 83       	std	Z+7, r24	; 0x07
     d50:	0e c0       	rjmp	.+28     	; 0xd6e <nwkRoutePrepareTx+0x38>
  }

  else if (header->nwkFcf.linkLocal)
     d52:	23 85       	ldd	r18, Z+11	; 0x0b
     d54:	22 ff       	sbrs	r18, 2
     d56:	03 c0       	rjmp	.+6      	; 0xd5e <nwkRoutePrepareTx+0x28>
  {
    header->macDstAddr = header->nwkDstAddr;
     d58:	90 87       	std	Z+8, r25	; 0x08
     d5a:	87 83       	std	Z+7, r24	; 0x07
     d5c:	08 c0       	rjmp	.+16     	; 0xd6e <nwkRoutePrepareTx+0x38>
     d5e:	ef 01       	movw	r28, r30
  }
#endif

  else
  {
    header->macDstAddr = NWK_RouteNextHop(header->nwkDstAddr, header->nwkFcf.multicast);
     d60:	63 85       	ldd	r22, Z+11	; 0x0b
     d62:	63 fb       	bst	r22, 3
     d64:	66 27       	eor	r22, r22
     d66:	60 f9       	bld	r22, 0
     d68:	41 df       	rcall	.-382    	; 0xbec <NWK_RouteNextHop>
     d6a:	98 87       	std	Y+8, r25	; 0x08
     d6c:	8f 83       	std	Y+7, r24	; 0x07
  #ifdef NWK_ENABLE_ROUTE_DISCOVERY
    if (NWK_ROUTE_UNKNOWN == header->macDstAddr)
      nwkRouteDiscoveryRequest(frame);
  #endif
  }
}
     d6e:	df 91       	pop	r29
     d70:	cf 91       	pop	r28
     d72:	08 95       	ret

00000d74 <nwkRouteFrame>:

/*************************************************************************//**
*****************************************************************************/
void nwkRouteFrame(NwkFrame_t *frame)
{
     d74:	af 92       	push	r10
     d76:	bf 92       	push	r11
     d78:	cf 92       	push	r12
     d7a:	df 92       	push	r13
     d7c:	ef 92       	push	r14
     d7e:	ff 92       	push	r15
     d80:	1f 93       	push	r17
     d82:	cf 93       	push	r28
     d84:	df 93       	push	r29
     d86:	ec 01       	movw	r28, r24
  NwkFrameHeader_t *header = &frame->header;

  if (NWK_ROUTE_UNKNOWN != NWK_RouteNextHop(header->nwkDstAddr, header->nwkFcf.multicast))
     d88:	1b 85       	ldd	r17, Y+11	; 0x0b
     d8a:	13 fb       	bst	r17, 3
     d8c:	11 27       	eor	r17, r17
     d8e:	10 f9       	bld	r17, 0
     d90:	cf 84       	ldd	r12, Y+15	; 0x0f
     d92:	d8 88       	ldd	r13, Y+16	; 0x10
     d94:	61 2f       	mov	r22, r17
     d96:	c6 01       	movw	r24, r12
     d98:	29 df       	rcall	.-430    	; 0xbec <NWK_RouteNextHop>
     d9a:	01 96       	adiw	r24, 0x01	; 1
     d9c:	59 f0       	breq	.+22     	; 0xdb4 <nwkRouteFrame+0x40>
  {
    frame->tx.confirm = NULL;
     d9e:	fe 01       	movw	r30, r28
     da0:	e9 57       	subi	r30, 0x79	; 121
     da2:	ff 4f       	sbci	r31, 0xFF	; 255
     da4:	11 82       	std	Z+1, r1	; 0x01
     da6:	10 82       	st	Z, r1
    frame->tx.control = NWK_TX_CONTROL_ROUTING;
     da8:	31 97       	sbiw	r30, 0x01	; 1
     daa:	82 e0       	ldi	r24, 0x02	; 2
     dac:	80 83       	st	Z, r24
    nwkTxFrame(frame);
     dae:	ce 01       	movw	r24, r28
     db0:	6e d3       	rcall	.+1756   	; 0x148e <nwkTxFrame>
     db2:	22 c0       	rjmp	.+68     	; 0xdf8 <nwkRouteFrame+0x84>
  }
  else
  {
    nwkRouteSendRouteError(header->nwkSrcAddr, header->nwkDstAddr, header->nwkFcf.multicast);
     db4:	ad 84       	ldd	r10, Y+13	; 0x0d
static void nwkRouteSendRouteError(uint16_t src, uint16_t dst, uint8_t multicast)
{
  NwkFrame_t *frame;
  NwkCommandRouteError_t *command;

  if (NULL == (frame = nwkFrameAlloc()))
     db6:	be 84       	ldd	r11, Y+14	; 0x0e
     db8:	1f de       	rcall	.-962    	; 0x9f8 <nwkFrameAlloc>
     dba:	7c 01       	movw	r14, r24
     dbc:	00 97       	sbiw	r24, 0x00	; 0
    return;

  nwkFrameCommandInit(frame);
     dbe:	d1 f0       	breq	.+52     	; 0xdf4 <nwkRouteFrame+0x80>
     dc0:	83 de       	rcall	.-762    	; 0xac8 <nwkFrameCommandInit>

  frame->size += sizeof(NwkCommandRouteError_t);
     dc2:	f7 01       	movw	r30, r14
     dc4:	81 81       	ldd	r24, Z+1	; 0x01
     dc6:	8a 5f       	subi	r24, 0xFA	; 250
     dc8:	81 83       	std	Z+1, r24	; 0x01
  frame->tx.confirm = NULL;
     dca:	e9 57       	subi	r30, 0x79	; 121
     dcc:	ff 4f       	sbci	r31, 0xFF	; 255
     dce:	11 82       	std	Z+1, r1	; 0x01
     dd0:	10 82       	st	Z, r1

  frame->header.nwkDstAddr = src;
     dd2:	f7 01       	movw	r30, r14
     dd4:	b0 8a       	std	Z+16, r11	; 0x10
     dd6:	a7 86       	std	Z+15, r10	; 0x0f

  command = (NwkCommandRouteError_t *)frame->payload;
     dd8:	ef 57       	subi	r30, 0x7F	; 127
     dda:	ff 4f       	sbci	r31, 0xFF	; 255
     ddc:	01 90       	ld	r0, Z+
     dde:	f0 81       	ld	r31, Z
     de0:	e0 2d       	mov	r30, r0
  command->id = NWK_COMMAND_ROUTE_ERROR;
     de2:	81 e0       	ldi	r24, 0x01	; 1
     de4:	80 83       	st	Z, r24
  command->srcAddr = src;
     de6:	b2 82       	std	Z+2, r11	; 0x02
     de8:	a1 82       	std	Z+1, r10	; 0x01
  command->dstAddr = dst;
     dea:	d4 82       	std	Z+4, r13	; 0x04
  command->multicast = multicast;

  nwkTxFrame(frame);
     dec:	c3 82       	std	Z+3, r12	; 0x03
     dee:	15 83       	std	Z+5, r17	; 0x05
     df0:	c7 01       	movw	r24, r14
    nwkTxFrame(frame);
  }
  else
  {
    nwkRouteSendRouteError(header->nwkSrcAddr, header->nwkDstAddr, header->nwkFcf.multicast);
    nwkFrameFree(frame);
     df2:	4d d3       	rcall	.+1690   	; 0x148e <nwkTxFrame>
     df4:	ce 01       	movw	r24, r28
     df6:	39 de       	rcall	.-910    	; 0xa6a <nwkFrameFree>
  }
}
     df8:	df 91       	pop	r29
     dfa:	cf 91       	pop	r28
     dfc:	1f 91       	pop	r17
     dfe:	ff 90       	pop	r15
     e00:	ef 90       	pop	r14
     e02:	df 90       	pop	r13
     e04:	cf 90       	pop	r12
     e06:	bf 90       	pop	r11
     e08:	af 90       	pop	r10
     e0a:	08 95       	ret

00000e0c <nwkRouteErrorReceived>:
*****************************************************************************/
bool nwkRouteErrorReceived(NWK_DataInd_t *ind)
{
  NwkCommandRouteError_t *command = (NwkCommandRouteError_t *)ind->data;

  if (sizeof(NwkCommandRouteError_t) != ind->size)
     e0c:	fc 01       	movw	r30, r24
     e0e:	21 85       	ldd	r18, Z+9	; 0x09
     e10:	26 30       	cpi	r18, 0x06	; 6
     e12:	49 f4       	brne	.+18     	; 0xe26 <nwkRouteErrorReceived+0x1a>

/*************************************************************************//**
*****************************************************************************/
bool nwkRouteErrorReceived(NWK_DataInd_t *ind)
{
  NwkCommandRouteError_t *command = (NwkCommandRouteError_t *)ind->data;
     e14:	07 80       	ldd	r0, Z+7	; 0x07
     e16:	f0 85       	ldd	r31, Z+8	; 0x08
     e18:	e0 2d       	mov	r30, r0

  if (sizeof(NwkCommandRouteError_t) != ind->size)
    return false;

  nwkRouteRemove(command->dstAddr, command->multicast);
     e1a:	65 81       	ldd	r22, Z+5	; 0x05
     e1c:	83 81       	ldd	r24, Z+3	; 0x03
     e1e:	94 81       	ldd	r25, Z+4	; 0x04
     e20:	ef de       	rcall	.-546    	; 0xc00 <nwkRouteRemove>

  return true;
     e22:	81 e0       	ldi	r24, 0x01	; 1
     e24:	08 95       	ret
bool nwkRouteErrorReceived(NWK_DataInd_t *ind)
{
  NwkCommandRouteError_t *command = (NwkCommandRouteError_t *)ind->data;

  if (sizeof(NwkCommandRouteError_t) != ind->size)
    return false;
     e26:	80 e0       	ldi	r24, 0x00	; 0

  nwkRouteRemove(command->dstAddr, command->multicast);

  return true;
}
     e28:	08 95       	ret

00000e2a <nwkRxServiceDataInd>:

/*************************************************************************//**
*****************************************************************************/
void NWK_SetAckControl(uint8_t control)
{
  nwkRxAckControl = control;
     e2a:	dc 01       	movw	r26, r24
     e2c:	19 96       	adiw	r26, 0x09	; 9
     e2e:	2c 91       	ld	r18, X
     e30:	19 97       	sbiw	r26, 0x09	; 9
     e32:	22 23       	and	r18, r18
     e34:	71 f0       	breq	.+28     	; 0xe52 <nwkRxServiceDataInd+0x28>
     e36:	17 96       	adiw	r26, 0x07	; 7
     e38:	ed 91       	ld	r30, X+
     e3a:	fc 91       	ld	r31, X
     e3c:	18 97       	sbiw	r26, 0x08	; 8
     e3e:	20 81       	ld	r18, Z
     e40:	22 23       	and	r18, r18
     e42:	19 f0       	breq	.+6      	; 0xe4a <nwkRxServiceDataInd+0x20>
     e44:	21 30       	cpi	r18, 0x01	; 1
     e46:	19 f0       	breq	.+6      	; 0xe4e <nwkRxServiceDataInd+0x24>
     e48:	06 c0       	rjmp	.+12     	; 0xe56 <nwkRxServiceDataInd+0x2c>
     e4a:	b2 c3       	rjmp	.+1892   	; 0x15b0 <nwkTxAckReceived>
     e4c:	08 95       	ret
     e4e:	de cf       	rjmp	.-68     	; 0xe0c <nwkRouteErrorReceived>
     e50:	08 95       	ret
     e52:	80 e0       	ldi	r24, 0x00	; 0
     e54:	08 95       	ret
     e56:	80 e0       	ldi	r24, 0x00	; 0
     e58:	08 95       	ret

00000e5a <nwkRxDuplicateRejectionTimerHandler>:
     e5a:	bc 01       	movw	r22, r24
     e5c:	e7 e2       	ldi	r30, 0x27	; 39
     e5e:	ff e1       	ldi	r31, 0x1F	; 31
     e60:	29 e5       	ldi	r18, 0x59	; 89
     e62:	3f e1       	ldi	r19, 0x1F	; 31
     e64:	40 e0       	ldi	r20, 0x00	; 0
     e66:	51 e0       	ldi	r21, 0x01	; 1
     e68:	90 81       	ld	r25, Z
     e6a:	99 23       	and	r25, r25
     e6c:	19 f0       	breq	.+6      	; 0xe74 <nwkRxDuplicateRejectionTimerHandler+0x1a>
     e6e:	91 50       	subi	r25, 0x01	; 1
     e70:	90 83       	st	Z, r25
     e72:	45 2f       	mov	r20, r21
     e74:	35 96       	adiw	r30, 0x05	; 5
     e76:	e2 17       	cp	r30, r18
     e78:	f3 07       	cpc	r31, r19
     e7a:	b1 f7       	brne	.-20     	; 0xe68 <nwkRxDuplicateRejectionTimerHandler+0xe>
     e7c:	44 23       	and	r20, r20
     e7e:	11 f0       	breq	.+4      	; 0xe84 <nwkRxDuplicateRejectionTimerHandler+0x2a>
     e80:	cb 01       	movw	r24, r22
     e82:	30 c6       	rjmp	.+3168   	; 0x1ae4 <SYS_TimerStart>
     e84:	08 95       	ret

00000e86 <nwkRxInit>:
     e86:	e7 e2       	ldi	r30, 0x27	; 39
     e88:	ff e1       	ldi	r31, 0x1F	; 31
     e8a:	89 e5       	ldi	r24, 0x59	; 89
     e8c:	9f e1       	ldi	r25, 0x1F	; 31
     e8e:	10 82       	st	Z, r1
     e90:	35 96       	adiw	r30, 0x05	; 5
     e92:	e8 17       	cp	r30, r24
     e94:	f9 07       	cpc	r31, r25
     e96:	d9 f7       	brne	.-10     	; 0xe8e <nwkRxInit+0x8>
     e98:	e5 e1       	ldi	r30, 0x15	; 21
     e9a:	ff e1       	ldi	r31, 0x1F	; 31
     e9c:	84 e6       	ldi	r24, 0x64	; 100
     e9e:	90 e0       	ldi	r25, 0x00	; 0
     ea0:	a0 e0       	ldi	r26, 0x00	; 0
     ea2:	b0 e0       	ldi	r27, 0x00	; 0
     ea4:	86 83       	std	Z+6, r24	; 0x06
     ea6:	97 83       	std	Z+7, r25	; 0x07
     ea8:	a0 87       	std	Z+8, r26	; 0x08
     eaa:	b1 87       	std	Z+9, r27	; 0x09
     eac:	12 86       	std	Z+10, r1	; 0x0a
     eae:	8d e2       	ldi	r24, 0x2D	; 45
     eb0:	97 e0       	ldi	r25, 0x07	; 7
     eb2:	94 87       	std	Z+12, r25	; 0x0c
     eb4:	83 87       	std	Z+11, r24	; 0x0b
     eb6:	65 e1       	ldi	r22, 0x15	; 21
     eb8:	77 e0       	ldi	r23, 0x07	; 7
     eba:	80 e0       	ldi	r24, 0x00	; 0
     ebc:	96 cc       	rjmp	.-1748   	; 0x7ea <NWK_OpenEndpoint>
     ebe:	08 95       	ret

00000ec0 <PHY_DataInd>:
     ec0:	cf 93       	push	r28
     ec2:	df 93       	push	r29
     ec4:	dc 01       	movw	r26, r24
     ec6:	ed 91       	ld	r30, X+
     ec8:	fc 91       	ld	r31, X
     eca:	11 97       	sbiw	r26, 0x01	; 1
     ecc:	21 81       	ldd	r18, Z+1	; 0x01
     ece:	28 38       	cpi	r18, 0x88	; 136
     ed0:	f1 f4       	brne	.+60     	; 0xf0e <PHY_DataInd+0x4e>
     ed2:	20 81       	ld	r18, Z
     ed4:	2f 7d       	andi	r18, 0xDF	; 223
     ed6:	21 34       	cpi	r18, 0x41	; 65
     ed8:	d1 f4       	brne	.+52     	; 0xf0e <PHY_DataInd+0x4e>
     eda:	12 96       	adiw	r26, 0x02	; 2
     edc:	2c 91       	ld	r18, X
     ede:	20 31       	cpi	r18, 0x10	; 16
     ee0:	b0 f0       	brcs	.+44     	; 0xf0e <PHY_DataInd+0x4e>
     ee2:	ec 01       	movw	r28, r24
     ee4:	89 dd       	rcall	.-1262   	; 0x9f8 <nwkFrameAlloc>
     ee6:	00 97       	sbiw	r24, 0x00	; 0
     ee8:	91 f0       	breq	.+36     	; 0xf0e <PHY_DataInd+0x4e>
     eea:	20 e2       	ldi	r18, 0x20	; 32
     eec:	fc 01       	movw	r30, r24
     eee:	20 83       	st	Z, r18
     ef0:	2a 81       	ldd	r18, Y+2	; 0x02
     ef2:	21 83       	std	Z+1, r18	; 0x01
     ef4:	2b 81       	ldd	r18, Y+3	; 0x03
     ef6:	ed 57       	subi	r30, 0x7D	; 125
     ef8:	ff 4f       	sbci	r31, 0xFF	; 255
     efa:	20 83       	st	Z, r18
     efc:	2c 81       	ldd	r18, Y+4	; 0x04
     efe:	31 96       	adiw	r30, 0x01	; 1
     f00:	20 83       	st	Z, r18
     f02:	4a 81       	ldd	r20, Y+2	; 0x02
     f04:	50 e0       	ldi	r21, 0x00	; 0
     f06:	68 81       	ld	r22, Y
     f08:	79 81       	ldd	r23, Y+1	; 0x01
     f0a:	02 96       	adiw	r24, 0x02	; 2
     f0c:	e0 d6       	rcall	.+3520   	; 0x1cce <memcpy>
     f0e:	df 91       	pop	r29
     f10:	cf 91       	pop	r28
     f12:	08 95       	ret

00000f14 <nwkRxTaskHandler>:

/*************************************************************************//**
  @brief Rx Module task handler
*****************************************************************************/
void nwkRxTaskHandler(void)
{
     f14:	2f 92       	push	r2
     f16:	3f 92       	push	r3
     f18:	4f 92       	push	r4
     f1a:	5f 92       	push	r5
     f1c:	6f 92       	push	r6
     f1e:	7f 92       	push	r7
     f20:	8f 92       	push	r8
     f22:	9f 92       	push	r9
     f24:	af 92       	push	r10
     f26:	bf 92       	push	r11
     f28:	cf 92       	push	r12
     f2a:	df 92       	push	r13
     f2c:	ef 92       	push	r14
     f2e:	ff 92       	push	r15
     f30:	0f 93       	push	r16
     f32:	1f 93       	push	r17
     f34:	cf 93       	push	r28
     f36:	df 93       	push	r29
     f38:	cd b7       	in	r28, 0x3d	; 61
     f3a:	de b7       	in	r29, 0x3e	; 62
     f3c:	2c 97       	sbiw	r28, 0x0c	; 12
     f3e:	0f b6       	in	r0, 0x3f	; 63
     f40:	f8 94       	cli
     f42:	de bf       	out	0x3e, r29	; 62
     f44:	0f be       	out	0x3f, r0	; 63
     f46:	cd bf       	out	0x3d, r28	; 61
  NwkFrame_t *frame = NULL;
     f48:	00 e0       	ldi	r16, 0x00	; 0
     f4a:	10 e0       	ldi	r17, 0x00	; 0
    ack = false;

  if (ack)
    nwkRxSendAck(frame);

  frame->state = NWK_RX_STATE_FINISH;
     f4c:	0f 2e       	mov	r0, r31
     f4e:	f4 e2       	ldi	r31, 0x24	; 36
     f50:	bf 2e       	mov	r11, r31
     f52:	f0 2d       	mov	r31, r0
    ack = true;

  if (NWK_BROADCAST_PANID == frame->header.macDstPanId)
    ack = false;

  if (NWK_BROADCAST_ADDR == nwkIb.addr)
     f54:	0f 2e       	mov	r0, r31
     f56:	f8 ef       	ldi	r31, 0xF8	; 248
     f58:	ef 2e       	mov	r14, r31
     f5a:	ff e1       	ldi	r31, 0x1F	; 31
     f5c:	ff 2e       	mov	r15, r31
     f5e:	f0 2d       	mov	r31, r0
    ack = false;

  if (NWK_BROADCAST_ADDR == frame->header.macDstAddr &&
      nwkIb.addr == frame->header.nwkDstAddr &&
      0 == frame->header.nwkFcf.multicast)
    ack = true;
     f60:	55 24       	eor	r5, r5
     f62:	53 94       	inc	r5
  ind.options |= (header->nwkFcf.security) ? NWK_IND_OPT_SECURED : 0;
  ind.options |= (header->nwkFcf.linkLocal) ? NWK_IND_OPT_LINK_LOCAL : 0;
  ind.options |= (header->nwkFcf.multicast) ? NWK_IND_OPT_MULTICAST : 0;
  ind.options |= (NWK_BROADCAST_ADDR == header->nwkDstAddr) ? NWK_IND_OPT_BROADCAST : 0;
  ind.options |= (header->nwkSrcAddr == header->macSrcAddr) ? NWK_IND_OPT_LOCAL : 0;
  ind.options |= (NWK_BROADCAST_PANID == header->macDstPanId) ? NWK_IND_OPT_BROADCAST_PAN_ID : 0;
     f64:	68 94       	set
     f66:	aa 24       	eor	r10, r10
     f68:	a4 f8       	bld	r10, 4
  ind.options  = (header->nwkFcf.ackRequest) ? NWK_IND_OPT_ACK_REQUESTED : 0;
  ind.options |= (header->nwkFcf.security) ? NWK_IND_OPT_SECURED : 0;
  ind.options |= (header->nwkFcf.linkLocal) ? NWK_IND_OPT_LINK_LOCAL : 0;
  ind.options |= (header->nwkFcf.multicast) ? NWK_IND_OPT_MULTICAST : 0;
  ind.options |= (NWK_BROADCAST_ADDR == header->nwkDstAddr) ? NWK_IND_OPT_BROADCAST : 0;
  ind.options |= (header->nwkSrcAddr == header->macSrcAddr) ? NWK_IND_OPT_LOCAL : 0;
     f6a:	68 94       	set
     f6c:	77 24       	eor	r7, r7
     f6e:	73 f8       	bld	r7, 3

  ind.options  = (header->nwkFcf.ackRequest) ? NWK_IND_OPT_ACK_REQUESTED : 0;
  ind.options |= (header->nwkFcf.security) ? NWK_IND_OPT_SECURED : 0;
  ind.options |= (header->nwkFcf.linkLocal) ? NWK_IND_OPT_LINK_LOCAL : 0;
  ind.options |= (header->nwkFcf.multicast) ? NWK_IND_OPT_MULTICAST : 0;
  ind.options |= (NWK_BROADCAST_ADDR == header->nwkDstAddr) ? NWK_IND_OPT_BROADCAST : 0;
     f70:	68 94       	set
     f72:	66 24       	eor	r6, r6
     f74:	62 f8       	bld	r6, 2
/*************************************************************************//**
*****************************************************************************/
static bool nwkRxRejectDuplicate(NwkFrameHeader_t *header)
{
  NwkDuplicateRejectionEntry_t *entry;
  NwkDuplicateRejectionEntry_t *freeEntry = NULL;
     f76:	31 2c       	mov	r3, r1
     f78:	21 2c       	mov	r2, r1
    return true;

  freeEntry->src = header->nwkSrcAddr;
  freeEntry->seq = header->nwkSeq;
  freeEntry->mask = 1;
  freeEntry->ttl = DUPLICATE_REJECTION_TTL;
     f7a:	0f 2e       	mov	r0, r31
     f7c:	ff e1       	ldi	r31, 0x1F	; 31
     f7e:	4f 2e       	mov	r4, r31
     f80:	f0 2d       	mov	r31, r0
            nwkRouteRemove(header->nwkDstAddr, header->nwkFcf.multicast);
        #endif
          return true;
        }

        entry->mask |= (1 << diff);
     f82:	cc 24       	eor	r12, r12
     f84:	c3 94       	inc	r12
     f86:	d1 2c       	mov	r13, r1
*****************************************************************************/
void nwkRxTaskHandler(void)
{
  NwkFrame_t *frame = NULL;

  while (NULL != (frame = nwkFrameNext(frame)))
     f88:	da c1       	rjmp	.+948    	; 0x133e <nwkRxTaskHandler+0x42a>
  {
    switch (frame->state)
     f8a:	d8 01       	movw	r26, r16
     f8c:	8c 91       	ld	r24, X
     f8e:	82 32       	cpi	r24, 0x22	; 34
     f90:	09 f4       	brne	.+2      	; 0xf94 <nwkRxTaskHandler+0x80>
     f92:	05 c1       	rjmp	.+522    	; 0x119e <nwkRxTaskHandler+0x28a>
     f94:	18 f4       	brcc	.+6      	; 0xf9c <nwkRxTaskHandler+0x88>
     f96:	80 32       	cpi	r24, 0x20	; 32
     f98:	41 f0       	breq	.+16     	; 0xfaa <nwkRxTaskHandler+0x96>
     f9a:	d1 c1       	rjmp	.+930    	; 0x133e <nwkRxTaskHandler+0x42a>
     f9c:	83 32       	cpi	r24, 0x23	; 35
     f9e:	09 f4       	brne	.+2      	; 0xfa2 <nwkRxTaskHandler+0x8e>
     fa0:	c9 c1       	rjmp	.+914    	; 0x1334 <nwkRxTaskHandler+0x420>
     fa2:	84 32       	cpi	r24, 0x24	; 36
     fa4:	09 f4       	brne	.+2      	; 0xfa8 <nwkRxTaskHandler+0x94>
     fa6:	c9 c1       	rjmp	.+914    	; 0x133a <nwkRxTaskHandler+0x426>
     fa8:	ca c1       	rjmp	.+916    	; 0x133e <nwkRxTaskHandler+0x42a>
*****************************************************************************/
static void nwkRxHandleReceivedFrame(NwkFrame_t *frame)
{
  NwkFrameHeader_t *header = &frame->header;

  frame->state = NWK_RX_STATE_FINISH;
     faa:	f8 01       	movw	r30, r16
     fac:	b0 82       	st	Z, r11

#ifndef NWK_ENABLE_SECURITY
  if (header->nwkFcf.security)
     fae:	83 85       	ldd	r24, Z+11	; 0x0b

#ifdef NWK_ENABLE_MULTICAST
  if (header->nwkFcf.multicast && header->nwkFcf.ackRequest)
    return;
#else
  if (header->nwkFcf.multicast)
     fb0:	98 2f       	mov	r25, r24
     fb2:	9a 70       	andi	r25, 0x0A	; 10
     fb4:	09 f0       	breq	.+2      	; 0xfb8 <nwkRxTaskHandler+0xa4>
     fb6:	c3 c1       	rjmp	.+902    	; 0x133e <nwkRxTaskHandler+0x42a>
    return;
#endif

  if (NWK_BROADCAST_PANID == header->macDstPanId)
     fb8:	25 81       	ldd	r18, Z+5	; 0x05
     fba:	36 81       	ldd	r19, Z+6	; 0x06
     fbc:	2f 3f       	cpi	r18, 0xFF	; 255
     fbe:	3f 4f       	sbci	r19, 0xFF	; 255
     fc0:	91 f4       	brne	.+36     	; 0xfe6 <nwkRxTaskHandler+0xd2>
  {
    if (nwkIb.addr == header->nwkDstAddr || NWK_BROADCAST_ADDR == header->nwkDstAddr)
     fc2:	d8 01       	movw	r26, r16
     fc4:	1f 96       	adiw	r26, 0x0f	; 15
     fc6:	8d 91       	ld	r24, X+
     fc8:	9c 91       	ld	r25, X
     fca:	50 97       	sbiw	r26, 0x10	; 16
     fcc:	f7 01       	movw	r30, r14
     fce:	20 81       	ld	r18, Z
     fd0:	31 81       	ldd	r19, Z+1	; 0x01
     fd2:	28 17       	cp	r18, r24
     fd4:	39 07       	cpc	r19, r25
     fd6:	19 f0       	breq	.+6      	; 0xfde <nwkRxTaskHandler+0xca>
     fd8:	01 96       	adiw	r24, 0x01	; 1
     fda:	09 f0       	breq	.+2      	; 0xfde <nwkRxTaskHandler+0xca>
     fdc:	b0 c1       	rjmp	.+864    	; 0x133e <nwkRxTaskHandler+0x42a>
    #ifdef NWK_ENABLE_SECURITY
      if (header->nwkFcf.security)
        frame->state = NWK_RX_STATE_DECRYPT;
      else
    #endif
        frame->state = NWK_RX_STATE_INDICATE;
     fde:	e2 e2       	ldi	r30, 0x22	; 34
     fe0:	d8 01       	movw	r26, r16
     fe2:	ec 93       	st	X, r30
     fe4:	ac c1       	rjmp	.+856    	; 0x133e <nwkRxTaskHandler+0x42a>
#ifdef NWK_ENABLE_ADDRESS_FILTER
  if (!NWK_FilterAddress(header->macSrcAddr, &frame->rx.lqi))
    return;
#endif

  if (NWK_BROADCAST_ADDR == header->nwkDstAddr && header->nwkFcf.ackRequest)
     fe6:	d8 01       	movw	r26, r16
     fe8:	1f 96       	adiw	r26, 0x0f	; 15
     fea:	2d 91       	ld	r18, X+
     fec:	3c 91       	ld	r19, X
     fee:	50 97       	sbiw	r26, 0x10	; 16
     ff0:	2f 3f       	cpi	r18, 0xFF	; 255
     ff2:	3f 4f       	sbci	r19, 0xFF	; 255
     ff4:	11 f4       	brne	.+4      	; 0xffa <nwkRxTaskHandler+0xe6>
     ff6:	80 fd       	sbrc	r24, 0
     ff8:	a2 c1       	rjmp	.+836    	; 0x133e <nwkRxTaskHandler+0x42a>
    return;

  if (nwkIb.addr == header->nwkSrcAddr)
     ffa:	f7 01       	movw	r30, r14
     ffc:	20 81       	ld	r18, Z
     ffe:	31 81       	ldd	r19, Z+1	; 0x01
    1000:	d8 01       	movw	r26, r16
    1002:	1d 96       	adiw	r26, 0x0d	; 13
    1004:	8d 91       	ld	r24, X+
    1006:	9c 91       	ld	r25, X
    1008:	1e 97       	sbiw	r26, 0x0e	; 14
    100a:	28 17       	cp	r18, r24
    100c:	39 07       	cpc	r19, r25
    100e:	09 f4       	brne	.+2      	; 0x1012 <nwkRxTaskHandler+0xfe>
    1010:	96 c1       	rjmp	.+812    	; 0x133e <nwkRxTaskHandler+0x42a>
    return;

#ifdef NWK_ENABLE_ROUTING
  nwkRouteFrameReceived(frame);
    1012:	c8 01       	movw	r24, r16
    1014:	fa dd       	rcall	.-1036   	; 0xc0a <nwkRouteFrameReceived>
    1016:	e3 e2       	ldi	r30, 0x23	; 35
    1018:	ff e1       	ldi	r31, 0x1F	; 31
    101a:	80 e0       	ldi	r24, 0x00	; 0
    101c:	90 e0       	ldi	r25, 0x00	; 0
/*************************************************************************//**
*****************************************************************************/
static bool nwkRxRejectDuplicate(NwkFrameHeader_t *header)
{
  NwkDuplicateRejectionEntry_t *entry;
  NwkDuplicateRejectionEntry_t *freeEntry = NULL;
    101e:	83 2c       	mov	r8, r3
    1020:	92 2c       	mov	r9, r2

  for (uint8_t i = 0; i < NWK_DUPLICATE_REJECTION_TABLE_SIZE; i++)
  {
    entry = &nwkRxDuplicateRejectionTable[i];
    1022:	9c 01       	movw	r18, r24

    if (entry->ttl && header->nwkSrcAddr == entry->src)
    1024:	44 81       	ldd	r20, Z+4	; 0x04
    1026:	44 23       	and	r20, r20
    1028:	09 f4       	brne	.+2      	; 0x102c <nwkRxTaskHandler+0x118>
    102a:	74 c0       	rjmp	.+232    	; 0x1114 <nwkRxTaskHandler+0x200>
    102c:	d8 01       	movw	r26, r16
    102e:	1d 96       	adiw	r26, 0x0d	; 13
    1030:	6d 91       	ld	r22, X+
    1032:	7c 91       	ld	r23, X
    1034:	1e 97       	sbiw	r26, 0x0e	; 14
    1036:	40 81       	ld	r20, Z
    1038:	51 81       	ldd	r21, Z+1	; 0x01
    103a:	64 17       	cp	r22, r20
    103c:	75 07       	cpc	r23, r21
    103e:	09 f0       	breq	.+2      	; 0x1042 <nwkRxTaskHandler+0x12e>
    1040:	6a c0       	rjmp	.+212    	; 0x1116 <nwkRxTaskHandler+0x202>
    {
      uint8_t diff = (int8_t)entry->seq - header->nwkSeq;
    1042:	1c 96       	adiw	r26, 0x0c	; 12
    1044:	8c 91       	ld	r24, X
    1046:	1c 97       	sbiw	r26, 0x0c	; 12
    1048:	f9 01       	movw	r30, r18
    104a:	ee 0f       	add	r30, r30
    104c:	ff 1f       	adc	r31, r31
    104e:	ee 0f       	add	r30, r30
    1050:	ff 1f       	adc	r31, r31
    1052:	e2 0f       	add	r30, r18
    1054:	f3 1f       	adc	r31, r19
    1056:	ed 5d       	subi	r30, 0xDD	; 221
    1058:	f0 4e       	sbci	r31, 0xE0	; 224
    105a:	92 81       	ldd	r25, Z+2	; 0x02
    105c:	98 1b       	sub	r25, r24

      if (diff < 8)
    105e:	98 30       	cpi	r25, 0x08	; 8
    1060:	08 f0       	brcs	.+2      	; 0x1064 <nwkRxTaskHandler+0x150>
    1062:	3e c0       	rjmp	.+124    	; 0x10e0 <nwkRxTaskHandler+0x1cc>
      {
        if (entry->mask & (1 << diff))
    1064:	f9 01       	movw	r30, r18
    1066:	ee 0f       	add	r30, r30
    1068:	ff 1f       	adc	r31, r31
    106a:	ee 0f       	add	r30, r30
    106c:	ff 1f       	adc	r31, r31
    106e:	e2 0f       	add	r30, r18
    1070:	f3 1f       	adc	r31, r19
    1072:	ed 5d       	subi	r30, 0xDD	; 221
    1074:	f0 4e       	sbci	r31, 0xE0	; 224
    1076:	83 81       	ldd	r24, Z+3	; 0x03
    1078:	48 2f       	mov	r20, r24
    107a:	50 e0       	ldi	r21, 0x00	; 0
    107c:	09 2e       	mov	r0, r25
    107e:	02 c0       	rjmp	.+4      	; 0x1084 <nwkRxTaskHandler+0x170>
    1080:	55 95       	asr	r21
    1082:	47 95       	ror	r20
    1084:	0a 94       	dec	r0
    1086:	e2 f7       	brpl	.-8      	; 0x1080 <nwkRxTaskHandler+0x16c>
    1088:	40 ff       	sbrs	r20, 0
    108a:	17 c0       	rjmp	.+46     	; 0x10ba <nwkRxTaskHandler+0x1a6>
        {
        #ifdef NWK_ENABLE_ROUTING
          if (nwkIb.addr == header->macDstAddr)
    108c:	f7 01       	movw	r30, r14
    108e:	20 81       	ld	r18, Z
    1090:	31 81       	ldd	r19, Z+1	; 0x01
    1092:	17 96       	adiw	r26, 0x07	; 7
    1094:	8d 91       	ld	r24, X+
    1096:	9c 91       	ld	r25, X
    1098:	18 97       	sbiw	r26, 0x08	; 8
    109a:	28 17       	cp	r18, r24
    109c:	39 07       	cpc	r19, r25
    109e:	09 f0       	breq	.+2      	; 0x10a2 <nwkRxTaskHandler+0x18e>
    10a0:	4e c1       	rjmp	.+668    	; 0x133e <nwkRxTaskHandler+0x42a>
            nwkRouteRemove(header->nwkDstAddr, header->nwkFcf.multicast);
    10a2:	1b 96       	adiw	r26, 0x0b	; 11
    10a4:	6c 91       	ld	r22, X
    10a6:	1b 97       	sbiw	r26, 0x0b	; 11
    10a8:	63 fb       	bst	r22, 3
    10aa:	66 27       	eor	r22, r22
    10ac:	60 f9       	bld	r22, 0
    10ae:	1f 96       	adiw	r26, 0x0f	; 15
    10b0:	8d 91       	ld	r24, X+
    10b2:	9c 91       	ld	r25, X
    10b4:	50 97       	sbiw	r26, 0x10	; 16
    10b6:	a4 dd       	rcall	.-1208   	; 0xc00 <nwkRouteRemove>
    10b8:	42 c1       	rjmp	.+644    	; 0x133e <nwkRxTaskHandler+0x42a>
        #endif
          return true;
        }

        entry->mask |= (1 << diff);
    10ba:	f9 01       	movw	r30, r18
    10bc:	ee 0f       	add	r30, r30
    10be:	ff 1f       	adc	r31, r31
    10c0:	ee 0f       	add	r30, r30
    10c2:	ff 1f       	adc	r31, r31
    10c4:	2e 0f       	add	r18, r30
    10c6:	3f 1f       	adc	r19, r31
    10c8:	f9 01       	movw	r30, r18
    10ca:	ed 5d       	subi	r30, 0xDD	; 221
    10cc:	f0 4e       	sbci	r31, 0xE0	; 224
    10ce:	96 01       	movw	r18, r12
    10d0:	02 c0       	rjmp	.+4      	; 0x10d6 <nwkRxTaskHandler+0x1c2>
    10d2:	22 0f       	add	r18, r18
    10d4:	33 1f       	adc	r19, r19
    10d6:	9a 95       	dec	r25
    10d8:	e2 f7       	brpl	.-8      	; 0x10d2 <nwkRxTaskHandler+0x1be>
    10da:	82 2b       	or	r24, r18
    10dc:	83 83       	std	Z+3, r24	; 0x03
    10de:	36 c1       	rjmp	.+620    	; 0x134c <nwkRxTaskHandler+0x438>
      }
      else
      {
        uint8_t shift = -(int8_t)diff;

        entry->seq = header->nwkSeq;
    10e0:	f9 01       	movw	r30, r18
    10e2:	ee 0f       	add	r30, r30
    10e4:	ff 1f       	adc	r31, r31
    10e6:	ee 0f       	add	r30, r30
    10e8:	ff 1f       	adc	r31, r31
    10ea:	2e 0f       	add	r18, r30
    10ec:	3f 1f       	adc	r19, r31
    10ee:	f9 01       	movw	r30, r18
    10f0:	ed 5d       	subi	r30, 0xDD	; 221
    10f2:	f0 4e       	sbci	r31, 0xE0	; 224
    10f4:	82 83       	std	Z+2, r24	; 0x02
        entry->mask = (entry->mask << shift) | 1;
    10f6:	83 81       	ldd	r24, Z+3	; 0x03
    10f8:	28 2f       	mov	r18, r24
    10fa:	30 e0       	ldi	r19, 0x00	; 0
    10fc:	91 95       	neg	r25
    10fe:	a9 01       	movw	r20, r18
    1100:	02 c0       	rjmp	.+4      	; 0x1106 <nwkRxTaskHandler+0x1f2>
    1102:	44 0f       	add	r20, r20
    1104:	55 1f       	adc	r21, r21
    1106:	9a 95       	dec	r25
    1108:	e2 f7       	brpl	.-8      	; 0x1102 <nwkRxTaskHandler+0x1ee>
    110a:	ca 01       	movw	r24, r20
    110c:	81 60       	ori	r24, 0x01	; 1
    110e:	83 83       	std	Z+3, r24	; 0x03
        entry->ttl = DUPLICATE_REJECTION_TTL;
    1110:	44 82       	std	Z+4, r4	; 0x04
    1112:	1c c1       	rjmp	.+568    	; 0x134c <nwkRxTaskHandler+0x438>
        return false;
      }
    }

    if (0 == entry->ttl)
      freeEntry = entry;
    1114:	4f 01       	movw	r8, r30
    1116:	01 96       	adiw	r24, 0x01	; 1
    1118:	35 96       	adiw	r30, 0x05	; 5
static bool nwkRxRejectDuplicate(NwkFrameHeader_t *header)
{
  NwkDuplicateRejectionEntry_t *entry;
  NwkDuplicateRejectionEntry_t *freeEntry = NULL;

  for (uint8_t i = 0; i < NWK_DUPLICATE_REJECTION_TABLE_SIZE; i++)
    111a:	8a 30       	cpi	r24, 0x0A	; 10
    111c:	91 05       	cpc	r25, r1
    111e:	09 f0       	breq	.+2      	; 0x1122 <nwkRxTaskHandler+0x20e>
    1120:	80 cf       	rjmp	.-256    	; 0x1022 <nwkRxTaskHandler+0x10e>

    if (0 == entry->ttl)
      freeEntry = entry;
  }

  if (NULL == freeEntry)
    1122:	81 14       	cp	r8, r1
    1124:	91 04       	cpc	r9, r1
    1126:	09 f4       	brne	.+2      	; 0x112a <nwkRxTaskHandler+0x216>
    1128:	0a c1       	rjmp	.+532    	; 0x133e <nwkRxTaskHandler+0x42a>
    return true;

  freeEntry->src = header->nwkSrcAddr;
    112a:	d8 01       	movw	r26, r16
    112c:	1d 96       	adiw	r26, 0x0d	; 13
    112e:	8d 91       	ld	r24, X+
    1130:	9c 91       	ld	r25, X
    1132:	1e 97       	sbiw	r26, 0x0e	; 14
    1134:	f4 01       	movw	r30, r8
    1136:	91 83       	std	Z+1, r25	; 0x01
    1138:	80 83       	st	Z, r24
  freeEntry->seq = header->nwkSeq;
    113a:	1c 96       	adiw	r26, 0x0c	; 12
    113c:	8c 91       	ld	r24, X
    113e:	82 83       	std	Z+2, r24	; 0x02
  freeEntry->mask = 1;
    1140:	53 82       	std	Z+3, r5	; 0x03
  freeEntry->ttl = DUPLICATE_REJECTION_TTL;
    1142:	44 82       	std	Z+4, r4	; 0x04

  SYS_TimerStart(&nwkRxDuplicateRejectionTimer);
    1144:	85 e1       	ldi	r24, 0x15	; 21
    1146:	9f e1       	ldi	r25, 0x1F	; 31
    1148:	cd d4       	rcall	.+2458   	; 0x1ae4 <SYS_TimerStart>
    114a:	00 c1       	rjmp	.+512    	; 0x134c <nwkRxTaskHandler+0x438>
    }
  }
  else
#endif // NWK_ENABLE_MULTICAST
  {
    if (NWK_BROADCAST_ADDR == header->macDstAddr && nwkIb.addr != header->nwkDstAddr &&
    114c:	d7 01       	movw	r26, r14
    114e:	2d 91       	ld	r18, X+
    1150:	3c 91       	ld	r19, X
    1152:	f8 01       	movw	r30, r16
    1154:	87 85       	ldd	r24, Z+15	; 0x0f
    1156:	90 89       	ldd	r25, Z+16	; 0x10
    1158:	28 17       	cp	r18, r24
    115a:	39 07       	cpc	r19, r25
    115c:	81 f0       	breq	.+32     	; 0x117e <nwkRxTaskHandler+0x26a>
    115e:	43 85       	ldd	r20, Z+11	; 0x0b
    1160:	42 fd       	sbrc	r20, 2
        0 == header->nwkFcf.linkLocal)
      nwkTxBroadcastFrame(frame);
    1162:	0b c0       	rjmp	.+22     	; 0x117a <nwkRxTaskHandler+0x266>
    1164:	c8 01       	movw	r24, r16
    1166:	e1 d1       	rcall	.+962    	; 0x152a <nwkTxBroadcastFrame>

    if (nwkIb.addr == header->nwkDstAddr || NWK_BROADCAST_ADDR == header->nwkDstAddr)
    1168:	d7 01       	movw	r26, r14
    116a:	2d 91       	ld	r18, X+
    116c:	3c 91       	ld	r19, X
    116e:	f8 01       	movw	r30, r16
    1170:	87 85       	ldd	r24, Z+15	; 0x0f
    1172:	90 89       	ldd	r25, Z+16	; 0x10
    1174:	28 17       	cp	r18, r24
    1176:	39 07       	cpc	r19, r25
    1178:	11 f0       	breq	.+4      	; 0x117e <nwkRxTaskHandler+0x26a>
    117a:	01 96       	adiw	r24, 0x01	; 1
    117c:	21 f4       	brne	.+8      	; 0x1186 <nwkRxTaskHandler+0x272>
    #ifdef NWK_ENABLE_SECURITY
      if (header->nwkFcf.security)
        frame->state = NWK_RX_STATE_DECRYPT;
      else
    #endif
        frame->state = NWK_RX_STATE_INDICATE;
    117e:	e2 e2       	ldi	r30, 0x22	; 34
    1180:	d8 01       	movw	r26, r16
    1182:	ec 93       	st	X, r30
    1184:	dc c0       	rjmp	.+440    	; 0x133e <nwkRxTaskHandler+0x42a>
    }

  #ifdef NWK_ENABLE_ROUTING
    else if (nwkIb.addr == header->macDstAddr)
    1186:	d8 01       	movw	r26, r16
    1188:	17 96       	adiw	r26, 0x07	; 7
    118a:	8d 91       	ld	r24, X+
    118c:	9c 91       	ld	r25, X
    118e:	18 97       	sbiw	r26, 0x08	; 8
    1190:	82 17       	cp	r24, r18
    1192:	93 07       	cpc	r25, r19
    1194:	09 f0       	breq	.+2      	; 0x1198 <nwkRxTaskHandler+0x284>
    1196:	d3 c0       	rjmp	.+422    	; 0x133e <nwkRxTaskHandler+0x42a>
    {
      frame->state = NWK_RX_STATE_ROUTE;
    1198:	e3 e2       	ldi	r30, 0x23	; 35
    119a:	ec 93       	st	X, r30
    119c:	d0 c0       	rjmp	.+416    	; 0x133e <nwkRxTaskHandler+0x42a>
*****************************************************************************/
static void nwkRxHandleIndication(NwkFrame_t *frame)
{
  bool ack;

  nwkRxAckControl = 0;
    119e:	10 92 22 1f 	sts	0x1F22, r1	; 0x801f22 <nwkRxAckControl>
static bool nwkRxIndicateFrame(NwkFrame_t *frame)
{
  NwkFrameHeader_t *header = &frame->header;
  NWK_DataInd_t ind;

  if (NULL == nwkIb.endpoint[header->nwkDstEndpoint])
    11a2:	d8 01       	movw	r26, r16
    11a4:	51 96       	adiw	r26, 0x11	; 17
    11a6:	8c 91       	ld	r24, X
    11a8:	51 97       	sbiw	r26, 0x11	; 17
    11aa:	82 95       	swap	r24
    11ac:	8f 70       	andi	r24, 0x0F	; 15
    11ae:	e8 2f       	mov	r30, r24
    11b0:	f0 e0       	ldi	r31, 0x00	; 0
    11b2:	ee 0f       	add	r30, r30
    11b4:	ff 1f       	adc	r31, r31
    11b6:	e2 50       	subi	r30, 0x02	; 2
    11b8:	f0 4e       	sbci	r31, 0xE0	; 224
    11ba:	01 90       	ld	r0, Z+
    11bc:	f0 81       	ld	r31, Z
    11be:	e0 2d       	mov	r30, r0
    11c0:	30 97       	sbiw	r30, 0x00	; 0
    11c2:	09 f4       	brne	.+2      	; 0x11c6 <nwkRxTaskHandler+0x2b2>
    11c4:	60 c0       	rjmp	.+192    	; 0x1286 <nwkRxTaskHandler+0x372>
    return false;

  ind.srcAddr = header->nwkSrcAddr;
    11c6:	1d 96       	adiw	r26, 0x0d	; 13
    11c8:	2d 91       	ld	r18, X+
    11ca:	3c 91       	ld	r19, X
    11cc:	1e 97       	sbiw	r26, 0x0e	; 14
    11ce:	3a 83       	std	Y+2, r19	; 0x02
    11d0:	29 83       	std	Y+1, r18	; 0x01
  ind.dstAddr = header->nwkDstAddr;
    11d2:	1f 96       	adiw	r26, 0x0f	; 15
    11d4:	4d 91       	ld	r20, X+
    11d6:	5c 91       	ld	r21, X
    11d8:	50 97       	sbiw	r26, 0x10	; 16
    11da:	5c 83       	std	Y+4, r21	; 0x04
    11dc:	4b 83       	std	Y+3, r20	; 0x03
  ind.srcEndpoint = header->nwkSrcEndpoint;
    11de:	51 96       	adiw	r26, 0x11	; 17
    11e0:	9c 91       	ld	r25, X
    11e2:	51 97       	sbiw	r26, 0x11	; 17
    11e4:	9f 70       	andi	r25, 0x0F	; 15
    11e6:	9d 83       	std	Y+5, r25	; 0x05
  ind.dstEndpoint = header->nwkDstEndpoint;
    11e8:	8e 83       	std	Y+6, r24	; 0x06
  ind.data = frame->payload;
    11ea:	af 57       	subi	r26, 0x7F	; 127
    11ec:	bf 4f       	sbci	r27, 0xFF	; 255
    11ee:	8d 91       	ld	r24, X+
    11f0:	9c 91       	ld	r25, X
    11f2:	99 87       	std	Y+9, r25	; 0x09
    11f4:	88 87       	std	Y+8, r24	; 0x08

/*************************************************************************//**
*****************************************************************************/
static inline uint8_t nwkFramePayloadSize(NwkFrame_t *frame)
{
  return frame->size - (frame->payload - frame->data);
    11f6:	b8 01       	movw	r22, r16
    11f8:	6e 5f       	subi	r22, 0xFE	; 254
    11fa:	7f 4f       	sbci	r23, 0xFF	; 255
  ind.size = nwkFramePayloadSize(frame);
    11fc:	86 1b       	sub	r24, r22
    11fe:	97 0b       	sbc	r25, r23
    1200:	d8 01       	movw	r26, r16
    1202:	11 96       	adiw	r26, 0x01	; 1
    1204:	9c 91       	ld	r25, X
    1206:	11 97       	sbiw	r26, 0x01	; 1
    1208:	98 1b       	sub	r25, r24
    120a:	9a 87       	std	Y+10, r25	; 0x0a
  ind.lqi = frame->rx.lqi;
    120c:	ad 57       	subi	r26, 0x7D	; 125
    120e:	bf 4f       	sbci	r27, 0xFF	; 255
    1210:	8c 91       	ld	r24, X
    1212:	8b 87       	std	Y+11, r24	; 0x0b
  ind.rssi = frame->rx.rssi;
    1214:	11 96       	adiw	r26, 0x01	; 1
    1216:	8c 91       	ld	r24, X
    1218:	8c 87       	std	Y+12, r24	; 0x0c

  ind.options  = (header->nwkFcf.ackRequest) ? NWK_IND_OPT_ACK_REQUESTED : 0;
    121a:	d8 01       	movw	r26, r16
    121c:	1b 96       	adiw	r26, 0x0b	; 11
    121e:	9c 91       	ld	r25, X
  ind.options |= (header->nwkFcf.security) ? NWK_IND_OPT_SECURED : 0;
    1220:	69 2f       	mov	r22, r25
    1222:	63 70       	andi	r22, 0x03	; 3
  ind.options |= (header->nwkFcf.linkLocal) ? NWK_IND_OPT_LINK_LOCAL : 0;
    1224:	92 fd       	sbrc	r25, 2
    1226:	02 c0       	rjmp	.+4      	; 0x122c <nwkRxTaskHandler+0x318>
    1228:	80 e0       	ldi	r24, 0x00	; 0
    122a:	01 c0       	rjmp	.+2      	; 0x122e <nwkRxTaskHandler+0x31a>
    122c:	80 e2       	ldi	r24, 0x20	; 32
    122e:	86 2b       	or	r24, r22
  ind.options |= (header->nwkFcf.multicast) ? NWK_IND_OPT_MULTICAST : 0;
    1230:	93 fd       	sbrc	r25, 3
    1232:	02 c0       	rjmp	.+4      	; 0x1238 <nwkRxTaskHandler+0x324>
    1234:	90 e0       	ldi	r25, 0x00	; 0
    1236:	01 c0       	rjmp	.+2      	; 0x123a <nwkRxTaskHandler+0x326>
    1238:	90 e4       	ldi	r25, 0x40	; 64
    123a:	89 2b       	or	r24, r25
  ind.options |= (NWK_BROADCAST_ADDR == header->nwkDstAddr) ? NWK_IND_OPT_BROADCAST : 0;
    123c:	4f 3f       	cpi	r20, 0xFF	; 255
    123e:	5f 4f       	sbci	r21, 0xFF	; 255
    1240:	11 f0       	breq	.+4      	; 0x1246 <nwkRxTaskHandler+0x332>
    1242:	90 e0       	ldi	r25, 0x00	; 0
    1244:	01 c0       	rjmp	.+2      	; 0x1248 <nwkRxTaskHandler+0x334>
    1246:	96 2d       	mov	r25, r6
    1248:	89 2b       	or	r24, r25
  ind.options |= (header->nwkSrcAddr == header->macSrcAddr) ? NWK_IND_OPT_LOCAL : 0;
    124a:	d8 01       	movw	r26, r16
    124c:	19 96       	adiw	r26, 0x09	; 9
    124e:	4d 91       	ld	r20, X+
    1250:	5c 91       	ld	r21, X
    1252:	1a 97       	sbiw	r26, 0x0a	; 10
    1254:	24 17       	cp	r18, r20
    1256:	35 07       	cpc	r19, r21
    1258:	11 f0       	breq	.+4      	; 0x125e <nwkRxTaskHandler+0x34a>
    125a:	90 e0       	ldi	r25, 0x00	; 0
    125c:	01 c0       	rjmp	.+2      	; 0x1260 <nwkRxTaskHandler+0x34c>
    125e:	97 2d       	mov	r25, r7
    1260:	89 2b       	or	r24, r25
    1262:	8f 83       	std	Y+7, r24	; 0x07
  ind.options |= (NWK_BROADCAST_PANID == header->macDstPanId) ? NWK_IND_OPT_BROADCAST_PAN_ID : 0;
    1264:	d8 01       	movw	r26, r16
    1266:	15 96       	adiw	r26, 0x05	; 5
    1268:	2d 91       	ld	r18, X+
    126a:	3c 91       	ld	r19, X
    126c:	16 97       	sbiw	r26, 0x06	; 6
    126e:	2f 3f       	cpi	r18, 0xFF	; 255
    1270:	3f 4f       	sbci	r19, 0xFF	; 255
    1272:	11 f0       	breq	.+4      	; 0x1278 <nwkRxTaskHandler+0x364>
    1274:	90 e0       	ldi	r25, 0x00	; 0
    1276:	01 c0       	rjmp	.+2      	; 0x127a <nwkRxTaskHandler+0x366>
    1278:	9a 2d       	mov	r25, r10
    127a:	89 2b       	or	r24, r25
    127c:	8f 83       	std	Y+7, r24	; 0x07

  return nwkIb.endpoint[header->nwkDstEndpoint](&ind);
    127e:	ce 01       	movw	r24, r28
    1280:	01 96       	adiw	r24, 0x01	; 1
    1282:	19 95       	eicall
    1284:	01 c0       	rjmp	.+2      	; 0x1288 <nwkRxTaskHandler+0x374>
{
  NwkFrameHeader_t *header = &frame->header;
  NWK_DataInd_t ind;

  if (NULL == nwkIb.endpoint[header->nwkDstEndpoint])
    return false;
    1286:	80 e0       	ldi	r24, 0x00	; 0
  bool ack;

  nwkRxAckControl = 0;
  ack = nwkRxIndicateFrame(frame);
  
  if (0 == frame->header.nwkFcf.ackRequest)
    1288:	f8 01       	movw	r30, r16
    128a:	93 85       	ldd	r25, Z+11	; 0x0b
    128c:	90 ff       	sbrs	r25, 0
    ack = false;
    128e:	80 e0       	ldi	r24, 0x00	; 0

  if (NWK_BROADCAST_ADDR == frame->header.macDstAddr &&
    1290:	d8 01       	movw	r26, r16
    1292:	17 96       	adiw	r26, 0x07	; 7
    1294:	2d 91       	ld	r18, X+
    1296:	3c 91       	ld	r19, X
    1298:	18 97       	sbiw	r26, 0x08	; 8
    129a:	2f 3f       	cpi	r18, 0xFF	; 255
    129c:	3f 4f       	sbci	r19, 0xFF	; 255
    129e:	69 f4       	brne	.+26     	; 0x12ba <nwkRxTaskHandler+0x3a6>
    12a0:	f7 01       	movw	r30, r14
    12a2:	40 81       	ld	r20, Z
    12a4:	51 81       	ldd	r21, Z+1	; 0x01
    12a6:	d8 01       	movw	r26, r16
    12a8:	1f 96       	adiw	r26, 0x0f	; 15
    12aa:	2d 91       	ld	r18, X+
    12ac:	3c 91       	ld	r19, X
    12ae:	50 97       	sbiw	r26, 0x10	; 16
    12b0:	42 17       	cp	r20, r18
    12b2:	53 07       	cpc	r21, r19
    12b4:	11 f4       	brne	.+4      	; 0x12ba <nwkRxTaskHandler+0x3a6>
      nwkIb.addr == frame->header.nwkDstAddr &&
    12b6:	93 ff       	sbrs	r25, 3
      0 == frame->header.nwkFcf.multicast)
    ack = true;
    12b8:	85 2d       	mov	r24, r5

  if (NWK_BROADCAST_PANID == frame->header.macDstPanId)
    12ba:	f8 01       	movw	r30, r16
    12bc:	25 81       	ldd	r18, Z+5	; 0x05
    12be:	36 81       	ldd	r19, Z+6	; 0x06
    12c0:	2f 3f       	cpi	r18, 0xFF	; 255
    12c2:	3f 4f       	sbci	r19, 0xFF	; 255
    12c4:	a1 f1       	breq	.+104    	; 0x132e <nwkRxTaskHandler+0x41a>
    ack = false;

  if (NWK_BROADCAST_ADDR == nwkIb.addr)
    12c6:	d7 01       	movw	r26, r14
    12c8:	2d 91       	ld	r18, X+
    12ca:	3c 91       	ld	r19, X
    12cc:	2f 3f       	cpi	r18, 0xFF	; 255
    12ce:	3f 4f       	sbci	r19, 0xFF	; 255
    ack = false;

  if (ack)
    12d0:	71 f1       	breq	.+92     	; 0x132e <nwkRxTaskHandler+0x41a>
    12d2:	88 23       	and	r24, r24
static void nwkRxSendAck(NwkFrame_t *frame)
{
  NwkFrame_t *ack;
  NwkCommandAck_t *command;

  if (NULL == (ack = nwkFrameAlloc()))
    12d4:	61 f1       	breq	.+88     	; 0x132e <nwkRxTaskHandler+0x41a>
    12d6:	90 db       	rcall	.-2272   	; 0x9f8 <nwkFrameAlloc>
    12d8:	4c 01       	movw	r8, r24
    12da:	00 97       	sbiw	r24, 0x00	; 0
    return;

  nwkFrameCommandInit(ack);
    12dc:	41 f1       	breq	.+80     	; 0x132e <nwkRxTaskHandler+0x41a>
    12de:	f4 db       	rcall	.-2072   	; 0xac8 <nwkFrameCommandInit>

  ack->size += sizeof(NwkCommandAck_t);
    12e0:	f4 01       	movw	r30, r8
    12e2:	81 81       	ldd	r24, Z+1	; 0x01
    12e4:	8d 5f       	subi	r24, 0xFD	; 253
    12e6:	81 83       	std	Z+1, r24	; 0x01
  ack->tx.confirm = NULL;
    12e8:	e9 57       	subi	r30, 0x79	; 121
    12ea:	ff 4f       	sbci	r31, 0xFF	; 255
    12ec:	11 82       	std	Z+1, r1	; 0x01
    12ee:	10 82       	st	Z, r1

  ack->header.nwkFcf.security = frame->header.nwkFcf.security;
    12f0:	d8 01       	movw	r26, r16
    12f2:	1b 96       	adiw	r26, 0x0b	; 11
    12f4:	8c 91       	ld	r24, X
    12f6:	1b 97       	sbiw	r26, 0x0b	; 11
    12f8:	86 95       	lsr	r24
    12fa:	81 70       	andi	r24, 0x01	; 1
    12fc:	f4 01       	movw	r30, r8
    12fe:	93 85       	ldd	r25, Z+11	; 0x0b
    1300:	80 fb       	bst	r24, 0
    1302:	91 f9       	bld	r25, 1
    1304:	93 87       	std	Z+11, r25	; 0x0b
  ack->header.nwkDstAddr = frame->header.nwkSrcAddr;
    1306:	1d 96       	adiw	r26, 0x0d	; 13
    1308:	8d 91       	ld	r24, X+
    130a:	9c 91       	ld	r25, X
    130c:	1e 97       	sbiw	r26, 0x0e	; 14
    130e:	90 8b       	std	Z+16, r25	; 0x10
    1310:	87 87       	std	Z+15, r24	; 0x0f

  command = (NwkCommandAck_t *)ack->payload;
    1312:	ef 57       	subi	r30, 0x7F	; 127
    1314:	ff 4f       	sbci	r31, 0xFF	; 255
    1316:	01 90       	ld	r0, Z+
    1318:	f0 81       	ld	r31, Z
    131a:	e0 2d       	mov	r30, r0
  command->id = NWK_COMMAND_ACK;
    131c:	10 82       	st	Z, r1
  command->control = nwkRxAckControl;
    131e:	80 91 22 1f 	lds	r24, 0x1F22	; 0x801f22 <nwkRxAckControl>
  command->seq = frame->header.nwkSeq;
    1322:	82 83       	std	Z+2, r24	; 0x02
    1324:	1c 96       	adiw	r26, 0x0c	; 12
    1326:	8c 91       	ld	r24, X

  nwkTxFrame(ack);
    1328:	81 83       	std	Z+1, r24	; 0x01
    132a:	c4 01       	movw	r24, r8
    ack = false;

  if (ack)
    nwkRxSendAck(frame);

  frame->state = NWK_RX_STATE_FINISH;
    132c:	b0 d0       	rcall	.+352    	; 0x148e <nwkTxFrame>
    132e:	d8 01       	movw	r26, r16
      } break;

#ifdef NWK_ENABLE_ROUTING
      case NWK_RX_STATE_ROUTE:
      {
        nwkRouteFrame(frame);
    1330:	bc 92       	st	X, r11
    1332:	05 c0       	rjmp	.+10     	; 0x133e <nwkRxTaskHandler+0x42a>
    1334:	c8 01       	movw	r24, r16
      } break;
    1336:	1e dd       	rcall	.-1476   	; 0xd74 <nwkRouteFrame>
#endif

      case NWK_RX_STATE_FINISH:
      {
        nwkFrameFree(frame);
    1338:	02 c0       	rjmp	.+4      	; 0x133e <nwkRxTaskHandler+0x42a>
    133a:	c8 01       	movw	r24, r16
    133c:	96 db       	rcall	.-2260   	; 0xa6a <nwkFrameFree>
*****************************************************************************/
void nwkRxTaskHandler(void)
{
  NwkFrame_t *frame = NULL;

  while (NULL != (frame = nwkFrameNext(frame)))
    133e:	c8 01       	movw	r24, r16
    1340:	9e db       	rcall	.-2244   	; 0xa7e <nwkFrameNext>
    1342:	8c 01       	movw	r16, r24
    1344:	89 2b       	or	r24, r25
    1346:	09 f0       	breq	.+2      	; 0x134a <nwkRxTaskHandler+0x436>
    1348:	20 ce       	rjmp	.-960    	; 0xf8a <nwkRxTaskHandler+0x76>
    134a:	07 c0       	rjmp	.+14     	; 0x135a <nwkRxTaskHandler+0x446>
    134c:	f8 01       	movw	r30, r16
    }
  }
  else
#endif // NWK_ENABLE_MULTICAST
  {
    if (NWK_BROADCAST_ADDR == header->macDstAddr && nwkIb.addr != header->nwkDstAddr &&
    134e:	87 81       	ldd	r24, Z+7	; 0x07
    1350:	90 85       	ldd	r25, Z+8	; 0x08
    1352:	01 96       	adiw	r24, 0x01	; 1
    1354:	09 f0       	breq	.+2      	; 0x1358 <nwkRxTaskHandler+0x444>
    1356:	08 cf       	rjmp	.-496    	; 0x1168 <nwkRxTaskHandler+0x254>
    1358:	f9 ce       	rjmp	.-526    	; 0x114c <nwkRxTaskHandler+0x238>
    135a:	2c 96       	adiw	r28, 0x0c	; 12
      {
        nwkFrameFree(frame);
      } break;
    }
  }
}
    135c:	0f b6       	in	r0, 0x3f	; 63
    135e:	f8 94       	cli
    1360:	de bf       	out	0x3e, r29	; 62
    1362:	0f be       	out	0x3f, r0	; 63
    1364:	cd bf       	out	0x3d, r28	; 61
    1366:	df 91       	pop	r29
    1368:	cf 91       	pop	r28
    136a:	1f 91       	pop	r17
    136c:	0f 91       	pop	r16
    136e:	ff 90       	pop	r15
    1370:	ef 90       	pop	r14
    1372:	df 90       	pop	r13
    1374:	cf 90       	pop	r12
    1376:	bf 90       	pop	r11
    1378:	af 90       	pop	r10
    137a:	9f 90       	pop	r9
    137c:	8f 90       	pop	r8
    137e:	7f 90       	pop	r7
    1380:	6f 90       	pop	r6
    1382:	5f 90       	pop	r5
    1384:	4f 90       	pop	r4
    1386:	3f 90       	pop	r3
    1388:	2f 90       	pop	r2
    138a:	08 95       	ret

0000138c <nwkTxDelayTimerHandler>:
    138c:	ef 92       	push	r14
/*************************************************************************//**
*****************************************************************************/
void nwkTxConfirm(NwkFrame_t *frame, uint8_t status)
{
  frame->state = NWK_TX_STATE_CONFIRM;
  frame->tx.status = status;
    138e:	ff 92       	push	r15
    1390:	0f 93       	push	r16
    1392:	1f 93       	push	r17
    1394:	cf 93       	push	r28
    1396:	7c 01       	movw	r14, r24
    1398:	10 e0       	ldi	r17, 0x00	; 0
    139a:	80 e0       	ldi	r24, 0x00	; 0
    139c:	90 e0       	ldi	r25, 0x00	; 0
    139e:	01 e0       	ldi	r16, 0x01	; 1
    13a0:	c3 e1       	ldi	r28, 0x13	; 19
    13a2:	13 c0       	rjmp	.+38     	; 0x13ca <nwkTxDelayTimerHandler+0x3e>
    13a4:	fc 01       	movw	r30, r24
    13a6:	20 81       	ld	r18, Z
    13a8:	21 31       	cpi	r18, 0x11	; 17
    13aa:	79 f4       	brne	.+30     	; 0x13ca <nwkTxDelayTimerHandler+0x3e>
    13ac:	ec 57       	subi	r30, 0x7C	; 124
    13ae:	ff 4f       	sbci	r31, 0xFF	; 255
    13b0:	20 81       	ld	r18, Z
    13b2:	31 81       	ldd	r19, Z+1	; 0x01
    13b4:	21 50       	subi	r18, 0x01	; 1
    13b6:	31 09       	sbc	r19, r1
    13b8:	31 83       	std	Z+1, r19	; 0x01
    13ba:	20 83       	st	Z, r18
    13bc:	23 2b       	or	r18, r19
    13be:	21 f4       	brne	.+8      	; 0x13c8 <nwkTxDelayTimerHandler+0x3c>
    13c0:	fc 01       	movw	r30, r24
    13c2:	c0 83       	st	Z, r28
    13c4:	10 2f       	mov	r17, r16
    13c6:	01 c0       	rjmp	.+2      	; 0x13ca <nwkTxDelayTimerHandler+0x3e>
    13c8:	10 2f       	mov	r17, r16
    13ca:	59 db       	rcall	.-2382   	; 0xa7e <nwkFrameNext>
    13cc:	00 97       	sbiw	r24, 0x00	; 0
    13ce:	51 f7       	brne	.-44     	; 0x13a4 <nwkTxDelayTimerHandler+0x18>
    13d0:	11 23       	and	r17, r17
    13d2:	11 f0       	breq	.+4      	; 0x13d8 <nwkTxDelayTimerHandler+0x4c>
    13d4:	c7 01       	movw	r24, r14
    13d6:	86 d3       	rcall	.+1804   	; 0x1ae4 <SYS_TimerStart>
    13d8:	cf 91       	pop	r28
    13da:	1f 91       	pop	r17
    13dc:	0f 91       	pop	r16
    13de:	ff 90       	pop	r15
    13e0:	ef 90       	pop	r14
    13e2:	08 95       	ret

000013e4 <nwkTxAckWaitTimerHandler>:
    13e4:	ef 92       	push	r14
    13e6:	ff 92       	push	r15
    13e8:	0f 93       	push	r16
    13ea:	1f 93       	push	r17
    13ec:	cf 93       	push	r28
    13ee:	df 93       	push	r29
    13f0:	7c 01       	movw	r14, r24
    13f2:	10 e0       	ldi	r17, 0x00	; 0
    13f4:	80 e0       	ldi	r24, 0x00	; 0
    13f6:	90 e0       	ldi	r25, 0x00	; 0
    13f8:	01 e0       	ldi	r16, 0x01	; 1
    13fa:	d7 e1       	ldi	r29, 0x17	; 23
    13fc:	c0 e1       	ldi	r28, 0x10	; 16
    13fe:	16 c0       	rjmp	.+44     	; 0x142c <nwkTxAckWaitTimerHandler+0x48>
    1400:	fc 01       	movw	r30, r24
    1402:	20 81       	ld	r18, Z
    1404:	26 31       	cpi	r18, 0x16	; 22
    1406:	91 f4       	brne	.+36     	; 0x142c <nwkTxAckWaitTimerHandler+0x48>
    1408:	ec 57       	subi	r30, 0x7C	; 124
    140a:	ff 4f       	sbci	r31, 0xFF	; 255
    140c:	20 81       	ld	r18, Z
    140e:	31 81       	ldd	r19, Z+1	; 0x01
    1410:	21 50       	subi	r18, 0x01	; 1
    1412:	31 09       	sbc	r19, r1
    1414:	31 83       	std	Z+1, r19	; 0x01
    1416:	20 83       	st	Z, r18
    1418:	23 2b       	or	r18, r19
    141a:	39 f4       	brne	.+14     	; 0x142a <nwkTxAckWaitTimerHandler+0x46>
    141c:	fc 01       	movw	r30, r24
    141e:	d0 83       	st	Z, r29
    1420:	ed 57       	subi	r30, 0x7D	; 125
    1422:	ff 4f       	sbci	r31, 0xFF	; 255
    1424:	c0 83       	st	Z, r28
    1426:	10 2f       	mov	r17, r16
    1428:	01 c0       	rjmp	.+2      	; 0x142c <nwkTxAckWaitTimerHandler+0x48>
    142a:	10 2f       	mov	r17, r16
    142c:	28 db       	rcall	.-2480   	; 0xa7e <nwkFrameNext>
    142e:	00 97       	sbiw	r24, 0x00	; 0
    1430:	39 f7       	brne	.-50     	; 0x1400 <nwkTxAckWaitTimerHandler+0x1c>
    1432:	11 23       	and	r17, r17
    1434:	11 f0       	breq	.+4      	; 0x143a <nwkTxAckWaitTimerHandler+0x56>
    1436:	c7 01       	movw	r24, r14
    1438:	55 d3       	rcall	.+1706   	; 0x1ae4 <SYS_TimerStart>
    143a:	df 91       	pop	r29
    143c:	cf 91       	pop	r28
    143e:	1f 91       	pop	r17
    1440:	0f 91       	pop	r16
    1442:	ff 90       	pop	r15
    1444:	ef 90       	pop	r14
    1446:	08 95       	ret

00001448 <nwkTxInit>:
    1448:	10 92 70 1f 	sts	0x1F70, r1	; 0x801f70 <nwkTxPhyActiveFrame+0x1>
    144c:	10 92 6f 1f 	sts	0x1F6F, r1	; 0x801f6f <nwkTxPhyActiveFrame>
    1450:	e2 e6       	ldi	r30, 0x62	; 98
    1452:	ff e1       	ldi	r31, 0x1F	; 31
    1454:	82 e3       	ldi	r24, 0x32	; 50
    1456:	90 e0       	ldi	r25, 0x00	; 0
    1458:	a0 e0       	ldi	r26, 0x00	; 0
    145a:	b0 e0       	ldi	r27, 0x00	; 0
    145c:	86 83       	std	Z+6, r24	; 0x06
    145e:	97 83       	std	Z+7, r25	; 0x07
    1460:	a0 87       	std	Z+8, r26	; 0x08
    1462:	b1 87       	std	Z+9, r27	; 0x09
    1464:	12 86       	std	Z+10, r1	; 0x0a
    1466:	82 ef       	ldi	r24, 0xF2	; 242
    1468:	99 e0       	ldi	r25, 0x09	; 9
    146a:	94 87       	std	Z+12, r25	; 0x0c
    146c:	83 87       	std	Z+11, r24	; 0x0b
    146e:	e5 e5       	ldi	r30, 0x55	; 85
    1470:	ff e1       	ldi	r31, 0x1F	; 31
    1472:	8a e0       	ldi	r24, 0x0A	; 10
    1474:	90 e0       	ldi	r25, 0x00	; 0
    1476:	a0 e0       	ldi	r26, 0x00	; 0
    1478:	b0 e0       	ldi	r27, 0x00	; 0
    147a:	86 83       	std	Z+6, r24	; 0x06
    147c:	97 83       	std	Z+7, r25	; 0x07
    147e:	a0 87       	std	Z+8, r26	; 0x08
    1480:	b1 87       	std	Z+9, r27	; 0x09
    1482:	12 86       	std	Z+10, r1	; 0x0a
    1484:	86 ec       	ldi	r24, 0xC6	; 198
    1486:	99 e0       	ldi	r25, 0x09	; 9
    1488:	94 87       	std	Z+12, r25	; 0x0c
    148a:	83 87       	std	Z+11, r24	; 0x0b
    148c:	08 95       	ret

0000148e <nwkTxFrame>:
    148e:	cf 93       	push	r28
    1490:	df 93       	push	r29
    1492:	ec 01       	movw	r28, r24
    1494:	fc 01       	movw	r30, r24
    1496:	ea 57       	subi	r30, 0x7A	; 122
    1498:	ff 4f       	sbci	r31, 0xFF	; 255
    149a:	80 81       	ld	r24, Z
    149c:	81 ff       	sbrs	r24, 1
    149e:	03 c0       	rjmp	.+6      	; 0x14a6 <nwkTxFrame+0x18>
    14a0:	92 e1       	ldi	r25, 0x12	; 18
    14a2:	98 83       	st	Y, r25
    14a4:	02 c0       	rjmp	.+4      	; 0x14aa <nwkTxFrame+0x1c>
    14a6:	92 e1       	ldi	r25, 0x12	; 18
    14a8:	98 83       	st	Y, r25
    14aa:	fe 01       	movw	r30, r28
    14ac:	ed 57       	subi	r30, 0x7D	; 125
    14ae:	ff 4f       	sbci	r31, 0xFF	; 255
    14b0:	10 82       	st	Z, r1
    14b2:	80 ff       	sbrs	r24, 0
    14b4:	05 c0       	rjmp	.+10     	; 0x14c0 <nwkTxFrame+0x32>
    14b6:	2f ef       	ldi	r18, 0xFF	; 255
    14b8:	3f ef       	ldi	r19, 0xFF	; 255
    14ba:	3e 83       	std	Y+6, r19	; 0x06
    14bc:	2d 83       	std	Y+5, r18	; 0x05
    14be:	06 c0       	rjmp	.+12     	; 0x14cc <nwkTxFrame+0x3e>
    14c0:	20 91 fa 1f 	lds	r18, 0x1FFA	; 0x801ffa <nwkIb+0x2>
    14c4:	30 91 fb 1f 	lds	r19, 0x1FFB	; 0x801ffb <nwkIb+0x3>
    14c8:	3e 83       	std	Y+6, r19	; 0x06
    14ca:	2d 83       	std	Y+5, r18	; 0x05
    14cc:	85 70       	andi	r24, 0x05	; 5
    14ce:	19 f4       	brne	.+6      	; 0x14d6 <nwkTxFrame+0x48>
    14d0:	ce 01       	movw	r24, r28
    14d2:	31 dc       	rcall	.-1950   	; 0xd36 <nwkRoutePrepareTx>
    14d4:	04 c0       	rjmp	.+8      	; 0x14de <nwkTxFrame+0x50>
    14d6:	8f 85       	ldd	r24, Y+15	; 0x0f
    14d8:	98 89       	ldd	r25, Y+16	; 0x10
    14da:	98 87       	std	Y+8, r25	; 0x08
    14dc:	8f 83       	std	Y+7, r24	; 0x07
    14de:	e8 ef       	ldi	r30, 0xF8	; 248
    14e0:	ff e1       	ldi	r31, 0x1F	; 31
    14e2:	80 81       	ld	r24, Z
    14e4:	91 81       	ldd	r25, Z+1	; 0x01
    14e6:	9a 87       	std	Y+10, r25	; 0x0a
    14e8:	89 87       	std	Y+9, r24	; 0x09
    14ea:	85 81       	ldd	r24, Z+5	; 0x05
    14ec:	8f 5f       	subi	r24, 0xFF	; 255
    14ee:	85 83       	std	Z+5, r24	; 0x05
    14f0:	8c 83       	std	Y+4, r24	; 0x04
    14f2:	8f 81       	ldd	r24, Y+7	; 0x07
    14f4:	98 85       	ldd	r25, Y+8	; 0x08
    14f6:	01 96       	adiw	r24, 0x01	; 1
    14f8:	69 f4       	brne	.+26     	; 0x1514 <nwkTxFrame+0x86>
    14fa:	81 e4       	ldi	r24, 0x41	; 65
    14fc:	98 e8       	ldi	r25, 0x88	; 136
    14fe:	9b 83       	std	Y+3, r25	; 0x03
    1500:	8a 83       	std	Y+2, r24	; 0x02
    1502:	d7 d3       	rcall	.+1966   	; 0x1cb2 <rand>
    1504:	cc 57       	subi	r28, 0x7C	; 124
    1506:	df 4f       	sbci	r29, 0xFF	; 255
    1508:	87 70       	andi	r24, 0x07	; 7
    150a:	99 27       	eor	r25, r25
    150c:	01 96       	adiw	r24, 0x01	; 1
    150e:	99 83       	std	Y+1, r25	; 0x01
    1510:	88 83       	st	Y, r24
    1512:	08 c0       	rjmp	.+16     	; 0x1524 <nwkTxFrame+0x96>
    1514:	81 e6       	ldi	r24, 0x61	; 97
    1516:	98 e8       	ldi	r25, 0x88	; 136
    1518:	9b 83       	std	Y+3, r25	; 0x03
    151a:	8a 83       	std	Y+2, r24	; 0x02
    151c:	cc 57       	subi	r28, 0x7C	; 124
    151e:	df 4f       	sbci	r29, 0xFF	; 255
    1520:	19 82       	std	Y+1, r1	; 0x01
    1522:	18 82       	st	Y, r1
    1524:	df 91       	pop	r29
    1526:	cf 91       	pop	r28
    1528:	08 95       	ret

0000152a <nwkTxBroadcastFrame>:
    152a:	0f 93       	push	r16
    152c:	1f 93       	push	r17
    152e:	cf 93       	push	r28
    1530:	df 93       	push	r29
    1532:	8c 01       	movw	r16, r24
    1534:	61 da       	rcall	.-2878   	; 0x9f8 <nwkFrameAlloc>
    1536:	ec 01       	movw	r28, r24
    1538:	89 2b       	or	r24, r25
    153a:	a9 f1       	breq	.+106    	; 0x15a6 <nwkTxBroadcastFrame+0x7c>
    153c:	82 e1       	ldi	r24, 0x12	; 18
    153e:	88 83       	st	Y, r24
    1540:	f8 01       	movw	r30, r16
    1542:	81 81       	ldd	r24, Z+1	; 0x01
    1544:	89 83       	std	Y+1, r24	; 0x01
    1546:	fe 01       	movw	r30, r28
    1548:	ed 57       	subi	r30, 0x7D	; 125
    154a:	ff 4f       	sbci	r31, 0xFF	; 255
    154c:	10 82       	st	Z, r1
    154e:	b1 d3       	rcall	.+1890   	; 0x1cb2 <rand>
    1550:	fe 01       	movw	r30, r28
    1552:	ec 57       	subi	r30, 0x7C	; 124
    1554:	ff 4f       	sbci	r31, 0xFF	; 255
    1556:	87 70       	andi	r24, 0x07	; 7
    1558:	99 27       	eor	r25, r25
    155a:	01 96       	adiw	r24, 0x01	; 1
    155c:	91 83       	std	Z+1, r25	; 0x01
    155e:	80 83       	st	Z, r24
    1560:	33 96       	adiw	r30, 0x03	; 3
    1562:	11 82       	std	Z+1, r1	; 0x01
    1564:	10 82       	st	Z, r1
    1566:	f8 01       	movw	r30, r16
    1568:	41 81       	ldd	r20, Z+1	; 0x01
    156a:	50 e0       	ldi	r21, 0x00	; 0
    156c:	b8 01       	movw	r22, r16
    156e:	6e 5f       	subi	r22, 0xFE	; 254
    1570:	7f 4f       	sbci	r23, 0xFF	; 255
    1572:	ce 01       	movw	r24, r28
    1574:	02 96       	adiw	r24, 0x02	; 2
    1576:	ab d3       	rcall	.+1878   	; 0x1cce <memcpy>
    1578:	81 e4       	ldi	r24, 0x41	; 65
    157a:	98 e8       	ldi	r25, 0x88	; 136
    157c:	9b 83       	std	Y+3, r25	; 0x03
    157e:	8a 83       	std	Y+2, r24	; 0x02
    1580:	8f ef       	ldi	r24, 0xFF	; 255
    1582:	9f ef       	ldi	r25, 0xFF	; 255
    1584:	98 87       	std	Y+8, r25	; 0x08
    1586:	8f 83       	std	Y+7, r24	; 0x07
    1588:	f8 01       	movw	r30, r16
    158a:	85 81       	ldd	r24, Z+5	; 0x05
    158c:	96 81       	ldd	r25, Z+6	; 0x06
    158e:	9e 83       	std	Y+6, r25	; 0x06
    1590:	8d 83       	std	Y+5, r24	; 0x05
    1592:	e8 ef       	ldi	r30, 0xF8	; 248
    1594:	ff e1       	ldi	r31, 0x1F	; 31
    1596:	80 81       	ld	r24, Z
    1598:	91 81       	ldd	r25, Z+1	; 0x01
    159a:	9a 87       	std	Y+10, r25	; 0x0a
    159c:	89 87       	std	Y+9, r24	; 0x09
    159e:	85 81       	ldd	r24, Z+5	; 0x05
    15a0:	8f 5f       	subi	r24, 0xFF	; 255
    15a2:	85 83       	std	Z+5, r24	; 0x05
    15a4:	8c 83       	std	Y+4, r24	; 0x04
    15a6:	df 91       	pop	r29
    15a8:	cf 91       	pop	r28
    15aa:	1f 91       	pop	r17
    15ac:	0f 91       	pop	r16
    15ae:	08 95       	ret

000015b0 <nwkTxAckReceived>:
    15b0:	cf 93       	push	r28
    15b2:	df 93       	push	r29
    15b4:	fc 01       	movw	r30, r24
    15b6:	21 85       	ldd	r18, Z+9	; 0x09
    15b8:	23 30       	cpi	r18, 0x03	; 3
    15ba:	d9 f4       	brne	.+54     	; 0x15f2 <nwkTxAckReceived+0x42>
    15bc:	10 c0       	rjmp	.+32     	; 0x15de <nwkTxAckReceived+0x2e>
    15be:	fc 01       	movw	r30, r24
    15c0:	20 81       	ld	r18, Z
    15c2:	26 31       	cpi	r18, 0x16	; 22
    15c4:	89 f4       	brne	.+34     	; 0x15e8 <nwkTxAckReceived+0x38>
    15c6:	34 85       	ldd	r19, Z+12	; 0x0c
    15c8:	29 81       	ldd	r18, Y+1	; 0x01
    15ca:	32 13       	cpse	r19, r18
    15cc:	0d c0       	rjmp	.+26     	; 0x15e8 <nwkTxAckReceived+0x38>
    15ce:	27 e1       	ldi	r18, 0x17	; 23
    15d0:	20 83       	st	Z, r18
    15d2:	2a 81       	ldd	r18, Y+2	; 0x02
    15d4:	ea 57       	subi	r30, 0x7A	; 122
    15d6:	ff 4f       	sbci	r31, 0xFF	; 255
    15d8:	20 83       	st	Z, r18
    15da:	81 e0       	ldi	r24, 0x01	; 1
    15dc:	0b c0       	rjmp	.+22     	; 0x15f4 <nwkTxAckReceived+0x44>
    15de:	fc 01       	movw	r30, r24
    15e0:	c7 81       	ldd	r28, Z+7	; 0x07
    15e2:	d0 85       	ldd	r29, Z+8	; 0x08
    15e4:	80 e0       	ldi	r24, 0x00	; 0
    15e6:	90 e0       	ldi	r25, 0x00	; 0
    15e8:	4a da       	rcall	.-2924   	; 0xa7e <nwkFrameNext>
    15ea:	00 97       	sbiw	r24, 0x00	; 0
    15ec:	41 f7       	brne	.-48     	; 0x15be <nwkTxAckReceived+0xe>
    15ee:	80 e0       	ldi	r24, 0x00	; 0
    15f0:	01 c0       	rjmp	.+2      	; 0x15f4 <nwkTxAckReceived+0x44>
    15f2:	80 e0       	ldi	r24, 0x00	; 0
    15f4:	df 91       	pop	r29
    15f6:	cf 91       	pop	r28
    15f8:	08 95       	ret

000015fa <PHY_DataConf>:

/*************************************************************************//**
*****************************************************************************/
void PHY_DataConf(uint8_t status)
{
  nwkTxPhyActiveFrame->tx.status = nwkTxConvertPhyStatus(status);
    15fa:	e0 91 6f 1f 	lds	r30, 0x1F6F	; 0x801f6f <nwkTxPhyActiveFrame>
    15fe:	f0 91 70 1f 	lds	r31, 0x1F70	; 0x801f70 <nwkTxPhyActiveFrame+0x1>

/*************************************************************************//**
*****************************************************************************/
static uint8_t nwkTxConvertPhyStatus(uint8_t status)
{
  switch (status)
    1602:	81 30       	cpi	r24, 0x01	; 1
    1604:	21 f0       	breq	.+8      	; 0x160e <PHY_DataConf+0x14>
    1606:	48 f0       	brcs	.+18     	; 0x161a <PHY_DataConf+0x20>
    1608:	82 30       	cpi	r24, 0x02	; 2
    160a:	19 f0       	breq	.+6      	; 0x1612 <PHY_DataConf+0x18>
    160c:	04 c0       	rjmp	.+8      	; 0x1616 <PHY_DataConf+0x1c>
  {
    case PHY_STATUS_SUCCESS:
      return NWK_SUCCESS_STATUS;

    case PHY_STATUS_CHANNEL_ACCESS_FAILURE:
      return NWK_PHY_CHANNEL_ACCESS_FAILURE_STATUS;
    160e:	80 e2       	ldi	r24, 0x20	; 32
    1610:	05 c0       	rjmp	.+10     	; 0x161c <PHY_DataConf+0x22>

    case PHY_STATUS_NO_ACK:
      return NWK_PHY_NO_ACK_STATUS;
    1612:	81 e2       	ldi	r24, 0x21	; 33
    1614:	03 c0       	rjmp	.+6      	; 0x161c <PHY_DataConf+0x22>

    default:
      return NWK_ERROR_STATUS;
    1616:	81 e0       	ldi	r24, 0x01	; 1
    1618:	01 c0       	rjmp	.+2      	; 0x161c <PHY_DataConf+0x22>
static uint8_t nwkTxConvertPhyStatus(uint8_t status)
{
  switch (status)
  {
    case PHY_STATUS_SUCCESS:
      return NWK_SUCCESS_STATUS;
    161a:	80 e0       	ldi	r24, 0x00	; 0

/*************************************************************************//**
*****************************************************************************/
void PHY_DataConf(uint8_t status)
{
  nwkTxPhyActiveFrame->tx.status = nwkTxConvertPhyStatus(status);
    161c:	df 01       	movw	r26, r30
    161e:	ad 57       	subi	r26, 0x7D	; 125
    1620:	bf 4f       	sbci	r27, 0xFF	; 255
    1622:	8c 93       	st	X, r24
  nwkTxPhyActiveFrame->state = NWK_TX_STATE_SENT;
    1624:	85 e1       	ldi	r24, 0x15	; 21
    1626:	80 83       	st	Z, r24
  nwkTxPhyActiveFrame = NULL;
    1628:	10 92 70 1f 	sts	0x1F70, r1	; 0x801f70 <nwkTxPhyActiveFrame+0x1>
    162c:	10 92 6f 1f 	sts	0x1F6F, r1	; 0x801f6f <nwkTxPhyActiveFrame>
  nwkIb.lock--;
    1630:	e8 ef       	ldi	r30, 0xF8	; 248
    1632:	ff e1       	ldi	r31, 0x1F	; 31
    1634:	86 a1       	ldd	r24, Z+38	; 0x26
    1636:	97 a1       	ldd	r25, Z+39	; 0x27
    1638:	01 97       	sbiw	r24, 0x01	; 1
    163a:	97 a3       	std	Z+39, r25	; 0x27
    163c:	86 a3       	std	Z+38, r24	; 0x26
    163e:	08 95       	ret

00001640 <nwkTxTaskHandler>:

/*************************************************************************//**
  @brief Tx Module task handler
*****************************************************************************/
void nwkTxTaskHandler(void)
{
    1640:	9f 92       	push	r9
    1642:	af 92       	push	r10
    1644:	bf 92       	push	r11
    1646:	cf 92       	push	r12
    1648:	df 92       	push	r13
    164a:	ef 92       	push	r14
    164c:	ff 92       	push	r15
    164e:	0f 93       	push	r16
    1650:	1f 93       	push	r17
    1652:	cf 93       	push	r28
    1654:	df 93       	push	r29
  NwkFrame_t *frame = NULL;
    1656:	c0 e0       	ldi	r28, 0x00	; 0
    1658:	d0 e0       	ldi	r29, 0x00	; 0
      case NWK_TX_STATE_SEND:
      {
        if (NULL == nwkTxPhyActiveFrame)
        {
          nwkTxPhyActiveFrame = frame;
          frame->state = NWK_TX_STATE_WAIT_CONF;
    165a:	0f 2e       	mov	r0, r31
    165c:	f4 e1       	ldi	r31, 0x14	; 20
    165e:	af 2e       	mov	r10, r31
    1660:	f0 2d       	mov	r31, r0
          PHY_DataReq(frame->data, frame->size);
          nwkIb.lock++;
    1662:	08 ef       	ldi	r16, 0xF8	; 248
    1664:	1f e1       	ldi	r17, 0x1F	; 31
            frame->state = NWK_TX_STATE_CONFIRM;
          }
        }
        else
        {
          frame->state = NWK_TX_STATE_CONFIRM;
    1666:	0f 2e       	mov	r0, r31
    1668:	f7 e1       	ldi	r31, 0x17	; 23
    166a:	df 2e       	mov	r13, r31
    166c:	f0 2d       	mov	r31, r0
      {
        if (NWK_SUCCESS_STATUS == frame->tx.status)
        {
          if (frame->header.nwkSrcAddr == nwkIb.addr && frame->header.nwkFcf.ackRequest)
          {
            frame->state = NWK_TX_STATE_WAIT_ACK;
    166e:	0f 2e       	mov	r0, r31
    1670:	f6 e1       	ldi	r31, 0x16	; 22
    1672:	9f 2e       	mov	r9, r31
    1674:	f0 2d       	mov	r31, r0
            frame->tx.timeout = NWK_ACK_WAIT_TIME / NWK_TX_ACK_WAIT_TIMER_INTERVAL + 1;
    1676:	0f 2e       	mov	r0, r31
    1678:	f9 e2       	ldi	r31, 0x29	; 41
    167a:	ef 2e       	mov	r14, r31
    167c:	f1 2c       	mov	r15, r1
    167e:	f0 2d       	mov	r31, r0
          frame->state = NWK_TX_STATE_WAIT_DELAY;
          SYS_TimerStart(&nwkTxDelayTimer);
        }
        else
        {
          frame->state = NWK_TX_STATE_SEND;
    1680:	0f 2e       	mov	r0, r31
    1682:	f3 e1       	ldi	r31, 0x13	; 19
    1684:	cf 2e       	mov	r12, r31
    1686:	f0 2d       	mov	r31, r0

      case NWK_TX_STATE_DELAY:
      {
        if (frame->tx.timeout > 0)
        {
          frame->state = NWK_TX_STATE_WAIT_DELAY;
    1688:	0f 2e       	mov	r0, r31
    168a:	f1 e1       	ldi	r31, 0x11	; 17
    168c:	bf 2e       	mov	r11, r31
    168e:	f0 2d       	mov	r31, r0
*****************************************************************************/
void nwkTxTaskHandler(void)
{
  NwkFrame_t *frame = NULL;

  while (NULL != (frame = nwkFrameNext(frame)))
    1690:	60 c0       	rjmp	.+192    	; 0x1752 <nwkTxTaskHandler+0x112>
  {
    switch (frame->state)
    1692:	88 81       	ld	r24, Y
    1694:	83 31       	cpi	r24, 0x13	; 19
    1696:	c1 f0       	breq	.+48     	; 0x16c8 <nwkTxTaskHandler+0x88>
    1698:	18 f4       	brcc	.+6      	; 0x16a0 <nwkTxTaskHandler+0x60>
    169a:	82 31       	cpi	r24, 0x12	; 18
    169c:	39 f0       	breq	.+14     	; 0x16ac <nwkTxTaskHandler+0x6c>
    169e:	59 c0       	rjmp	.+178    	; 0x1752 <nwkTxTaskHandler+0x112>
    16a0:	85 31       	cpi	r24, 0x15	; 21
    16a2:	49 f1       	breq	.+82     	; 0x16f6 <nwkTxTaskHandler+0xb6>
    16a4:	87 31       	cpi	r24, 0x17	; 23
    16a6:	09 f4       	brne	.+2      	; 0x16aa <nwkTxTaskHandler+0x6a>
    16a8:	45 c0       	rjmp	.+138    	; 0x1734 <nwkTxTaskHandler+0xf4>
    16aa:	53 c0       	rjmp	.+166    	; 0x1752 <nwkTxTaskHandler+0x112>
      } break;
#endif

      case NWK_TX_STATE_DELAY:
      {
        if (frame->tx.timeout > 0)
    16ac:	fe 01       	movw	r30, r28
    16ae:	ec 57       	subi	r30, 0x7C	; 124
    16b0:	ff 4f       	sbci	r31, 0xFF	; 255
    16b2:	80 81       	ld	r24, Z
    16b4:	91 81       	ldd	r25, Z+1	; 0x01
    16b6:	89 2b       	or	r24, r25
    16b8:	29 f0       	breq	.+10     	; 0x16c4 <nwkTxTaskHandler+0x84>
        {
          frame->state = NWK_TX_STATE_WAIT_DELAY;
    16ba:	b8 82       	st	Y, r11
          SYS_TimerStart(&nwkTxDelayTimer);
    16bc:	85 e5       	ldi	r24, 0x55	; 85
    16be:	9f e1       	ldi	r25, 0x1F	; 31
    16c0:	11 d2       	rcall	.+1058   	; 0x1ae4 <SYS_TimerStart>
    16c2:	47 c0       	rjmp	.+142    	; 0x1752 <nwkTxTaskHandler+0x112>
        }
        else
        {
          frame->state = NWK_TX_STATE_SEND;
    16c4:	c8 82       	st	Y, r12
    16c6:	45 c0       	rjmp	.+138    	; 0x1752 <nwkTxTaskHandler+0x112>
        }
      } break;

      case NWK_TX_STATE_SEND:
      {
        if (NULL == nwkTxPhyActiveFrame)
    16c8:	80 91 6f 1f 	lds	r24, 0x1F6F	; 0x801f6f <nwkTxPhyActiveFrame>
    16cc:	90 91 70 1f 	lds	r25, 0x1F70	; 0x801f70 <nwkTxPhyActiveFrame+0x1>
    16d0:	89 2b       	or	r24, r25
    16d2:	09 f0       	breq	.+2      	; 0x16d6 <nwkTxTaskHandler+0x96>
    16d4:	3e c0       	rjmp	.+124    	; 0x1752 <nwkTxTaskHandler+0x112>
        {
          nwkTxPhyActiveFrame = frame;
    16d6:	d0 93 70 1f 	sts	0x1F70, r29	; 0x801f70 <nwkTxPhyActiveFrame+0x1>
    16da:	c0 93 6f 1f 	sts	0x1F6F, r28	; 0x801f6f <nwkTxPhyActiveFrame>
          frame->state = NWK_TX_STATE_WAIT_CONF;
    16de:	a8 82       	st	Y, r10
          PHY_DataReq(frame->data, frame->size);
    16e0:	69 81       	ldd	r22, Y+1	; 0x01
    16e2:	ce 01       	movw	r24, r28
    16e4:	02 96       	adiw	r24, 0x02	; 2
    16e6:	cb d0       	rcall	.+406    	; 0x187e <PHY_DataReq>
          nwkIb.lock++;
    16e8:	f8 01       	movw	r30, r16
    16ea:	86 a1       	ldd	r24, Z+38	; 0x26
    16ec:	97 a1       	ldd	r25, Z+39	; 0x27
    16ee:	01 96       	adiw	r24, 0x01	; 1
    16f0:	97 a3       	std	Z+39, r25	; 0x27
    16f2:	86 a3       	std	Z+38, r24	; 0x26
    16f4:	2e c0       	rjmp	.+92     	; 0x1752 <nwkTxTaskHandler+0x112>
      case NWK_TX_STATE_WAIT_CONF:
        break;

      case NWK_TX_STATE_SENT:
      {
        if (NWK_SUCCESS_STATUS == frame->tx.status)
    16f6:	fe 01       	movw	r30, r28
    16f8:	ed 57       	subi	r30, 0x7D	; 125
    16fa:	ff 4f       	sbci	r31, 0xFF	; 255
    16fc:	80 81       	ld	r24, Z
    16fe:	81 11       	cpse	r24, r1
    1700:	17 c0       	rjmp	.+46     	; 0x1730 <nwkTxTaskHandler+0xf0>
        {
          if (frame->header.nwkSrcAddr == nwkIb.addr && frame->header.nwkFcf.ackRequest)
    1702:	2d 85       	ldd	r18, Y+13	; 0x0d
    1704:	3e 85       	ldd	r19, Y+14	; 0x0e
    1706:	f8 01       	movw	r30, r16
    1708:	80 81       	ld	r24, Z
    170a:	91 81       	ldd	r25, Z+1	; 0x01
    170c:	28 17       	cp	r18, r24
    170e:	39 07       	cpc	r19, r25
    1710:	69 f4       	brne	.+26     	; 0x172c <nwkTxTaskHandler+0xec>
    1712:	8b 85       	ldd	r24, Y+11	; 0x0b
    1714:	80 ff       	sbrs	r24, 0
    1716:	0a c0       	rjmp	.+20     	; 0x172c <nwkTxTaskHandler+0xec>
          {
            frame->state = NWK_TX_STATE_WAIT_ACK;
    1718:	98 82       	st	Y, r9
            frame->tx.timeout = NWK_ACK_WAIT_TIME / NWK_TX_ACK_WAIT_TIMER_INTERVAL + 1;
    171a:	fe 01       	movw	r30, r28
    171c:	ec 57       	subi	r30, 0x7C	; 124
    171e:	ff 4f       	sbci	r31, 0xFF	; 255
    1720:	f1 82       	std	Z+1, r15	; 0x01
    1722:	e0 82       	st	Z, r14
            SYS_TimerStart(&nwkTxAckWaitTimer);
    1724:	82 e6       	ldi	r24, 0x62	; 98
    1726:	9f e1       	ldi	r25, 0x1F	; 31
    1728:	dd d1       	rcall	.+954    	; 0x1ae4 <SYS_TimerStart>
    172a:	13 c0       	rjmp	.+38     	; 0x1752 <nwkTxTaskHandler+0x112>
          }
          else
          {
            frame->state = NWK_TX_STATE_CONFIRM;
    172c:	d8 82       	st	Y, r13
    172e:	11 c0       	rjmp	.+34     	; 0x1752 <nwkTxTaskHandler+0x112>
          }
        }
        else
        {
          frame->state = NWK_TX_STATE_CONFIRM;
    1730:	d8 82       	st	Y, r13
        break;

      case NWK_TX_STATE_CONFIRM:
      {
#ifdef NWK_ENABLE_ROUTING
        nwkRouteFrameSent(frame);
    1732:	0f c0       	rjmp	.+30     	; 0x1752 <nwkTxTaskHandler+0x112>
    1734:	ce 01       	movw	r24, r28
    1736:	b8 da       	rcall	.-2704   	; 0xca8 <nwkRouteFrameSent>
#endif
        if (NULL == frame->tx.confirm)
    1738:	fe 01       	movw	r30, r28
    173a:	e9 57       	subi	r30, 0x79	; 121
    173c:	ff 4f       	sbci	r31, 0xFF	; 255
    173e:	01 90       	ld	r0, Z+
    1740:	f0 81       	ld	r31, Z
    1742:	e0 2d       	mov	r30, r0
    1744:	30 97       	sbiw	r30, 0x00	; 0
          nwkFrameFree(frame);
    1746:	19 f4       	brne	.+6      	; 0x174e <nwkTxTaskHandler+0x10e>
    1748:	ce 01       	movw	r24, r28
    174a:	8f d9       	rcall	.-3298   	; 0xa6a <nwkFrameFree>
        else
          frame->tx.confirm(frame);
    174c:	02 c0       	rjmp	.+4      	; 0x1752 <nwkTxTaskHandler+0x112>
    174e:	ce 01       	movw	r24, r28
*****************************************************************************/
void nwkTxTaskHandler(void)
{
  NwkFrame_t *frame = NULL;

  while (NULL != (frame = nwkFrameNext(frame)))
    1750:	19 95       	eicall
    1752:	ce 01       	movw	r24, r28
    1754:	94 d9       	rcall	.-3288   	; 0xa7e <nwkFrameNext>
    1756:	ec 01       	movw	r28, r24
    1758:	89 2b       	or	r24, r25
    175a:	09 f0       	breq	.+2      	; 0x175e <nwkTxTaskHandler+0x11e>
    175c:	9a cf       	rjmp	.-204    	; 0x1692 <nwkTxTaskHandler+0x52>

      default:
        break;
    };
  }
}
    175e:	df 91       	pop	r29
    1760:	cf 91       	pop	r28
    1762:	1f 91       	pop	r17
    1764:	0f 91       	pop	r16
    1766:	ff 90       	pop	r15
    1768:	ef 90       	pop	r14
    176a:	df 90       	pop	r13
    176c:	cf 90       	pop	r12
    176e:	bf 90       	pop	r11
    1770:	af 90       	pop	r10
    1772:	9f 90       	pop	r9
    1774:	08 95       	ret

00001776 <phySetChannel>:
*****************************************************************************/
void PHY_Wakeup(void)
{
  TRXPR_REG_s.slptr = 0;
  phySetRxState();
  phyState = PHY_STATE_IDLE;
    1776:	80 91 71 1f 	lds	r24, 0x1F71	; 0x801f71 <phyBand>
    177a:	98 2f       	mov	r25, r24
    177c:	9f 70       	andi	r25, 0x0F	; 15
    177e:	e4 e5       	ldi	r30, 0x54	; 84
    1780:	f1 e0       	ldi	r31, 0x01	; 1
    1782:	80 81       	ld	r24, Z
    1784:	80 7f       	andi	r24, 0xF0	; 240
    1786:	89 2b       	or	r24, r25
    1788:	80 83       	st	Z, r24
    178a:	80 91 71 1f 	lds	r24, 0x1F71	; 0x801f71 <phyBand>
    178e:	88 23       	and	r24, r24
    1790:	29 f0       	breq	.+10     	; 0x179c <phySetChannel+0x26>
    1792:	80 91 72 1f 	lds	r24, 0x1F72	; 0x801f72 <phyChannel>
    1796:	80 93 53 01 	sts	0x0153, r24	; 0x800153 <__TEXT_REGION_LENGTH__+0x7c0153>
    179a:	08 95       	ret
    179c:	80 91 72 1f 	lds	r24, 0x1F72	; 0x801f72 <phyChannel>
    17a0:	98 2f       	mov	r25, r24
    17a2:	9f 71       	andi	r25, 0x1F	; 31
    17a4:	e8 e4       	ldi	r30, 0x48	; 72
    17a6:	f1 e0       	ldi	r31, 0x01	; 1
    17a8:	80 81       	ld	r24, Z
    17aa:	80 7e       	andi	r24, 0xE0	; 224
    17ac:	89 2b       	or	r24, r25
    17ae:	80 83       	st	Z, r24
    17b0:	08 95       	ret

000017b2 <phyTrxSetState>:
    17b2:	93 e0       	ldi	r25, 0x03	; 3
    17b4:	90 93 42 01 	sts	0x0142, r25	; 0x800142 <__TEXT_REGION_LENGTH__+0x7c0142>
    17b8:	e1 e4       	ldi	r30, 0x41	; 65
    17ba:	f1 e0       	ldi	r31, 0x01	; 1
    17bc:	90 81       	ld	r25, Z
    17be:	9f 71       	andi	r25, 0x1F	; 31
    17c0:	98 30       	cpi	r25, 0x08	; 8
    17c2:	e1 f7       	brne	.-8      	; 0x17bc <phyTrxSetState+0xa>
    17c4:	80 93 42 01 	sts	0x0142, r24	; 0x800142 <__TEXT_REGION_LENGTH__+0x7c0142>
    17c8:	e1 e4       	ldi	r30, 0x41	; 65
    17ca:	f1 e0       	ldi	r31, 0x01	; 1
    17cc:	90 81       	ld	r25, Z
    17ce:	9f 71       	andi	r25, 0x1F	; 31
    17d0:	89 13       	cpse	r24, r25
    17d2:	fc cf       	rjmp	.-8      	; 0x17cc <phyTrxSetState+0x1a>
    17d4:	08 95       	ret

000017d6 <phySetRxState>:
    17d6:	88 e0       	ldi	r24, 0x08	; 8
    17d8:	ec df       	rcall	.-40     	; 0x17b2 <phyTrxSetState>
    17da:	8f ef       	ldi	r24, 0xFF	; 255
    17dc:	80 93 4f 01 	sts	0x014F, r24	; 0x80014f <__TEXT_REGION_LENGTH__+0x7c014f>
    17e0:	80 91 73 1f 	lds	r24, 0x1F73	; 0x801f73 <phyRxState>
    17e4:	88 23       	and	r24, r24
    17e6:	11 f0       	breq	.+4      	; 0x17ec <phySetRxState+0x16>
    17e8:	86 e1       	ldi	r24, 0x16	; 22
    17ea:	e3 cf       	rjmp	.-58     	; 0x17b2 <phyTrxSetState>
    17ec:	08 95       	ret

000017ee <PHY_Init>:
    17ee:	e9 e3       	ldi	r30, 0x39	; 57
    17f0:	f1 e0       	ldi	r31, 0x01	; 1
    17f2:	80 81       	ld	r24, Z
    17f4:	81 60       	ori	r24, 0x01	; 1
    17f6:	80 83       	st	Z, r24
    17f8:	10 92 73 1f 	sts	0x1F73, r1	; 0x801f73 <phyRxState>
    17fc:	10 92 71 1f 	sts	0x1F71, r1	; 0x801f71 <phyBand>
    1800:	81 e0       	ldi	r24, 0x01	; 1
    1802:	80 93 f4 1f 	sts	0x1FF4, r24	; 0x801ff4 <phyState>
    1806:	88 e0       	ldi	r24, 0x08	; 8
    1808:	d4 df       	rcall	.-88     	; 0x17b2 <phyTrxSetState>
    180a:	8b ee       	ldi	r24, 0xEB	; 235
    180c:	80 93 56 01 	sts	0x0156, r24	; 0x800156 <__TEXT_REGION_LENGTH__+0x7c0156>
    1810:	ec e4       	ldi	r30, 0x4C	; 76
    1812:	f1 e0       	ldi	r31, 0x01	; 1
    1814:	80 81       	ld	r24, Z
    1816:	80 68       	ori	r24, 0x80	; 128
    1818:	80 83       	st	Z, r24
    181a:	08 95       	ret

0000181c <PHY_SetRxState>:
    181c:	80 93 73 1f 	sts	0x1F73, r24	; 0x801f73 <phyRxState>
    1820:	da cf       	rjmp	.-76     	; 0x17d6 <phySetRxState>
    1822:	08 95       	ret

00001824 <PHY_SetChannel>:
    1824:	80 93 72 1f 	sts	0x1F72, r24	; 0x801f72 <phyChannel>
    1828:	a6 cf       	rjmp	.-180    	; 0x1776 <phySetChannel>
    182a:	08 95       	ret

0000182c <PHY_SetPanId>:
    182c:	cf 93       	push	r28
    182e:	df 93       	push	r29
    1830:	1f 92       	push	r1
    1832:	1f 92       	push	r1
    1834:	cd b7       	in	r28, 0x3d	; 61
    1836:	de b7       	in	r29, 0x3e	; 62
    1838:	9a 83       	std	Y+2, r25	; 0x02
    183a:	89 83       	std	Y+1, r24	; 0x01
    183c:	80 93 62 01 	sts	0x0162, r24	; 0x800162 <__TEXT_REGION_LENGTH__+0x7c0162>
    1840:	8a 81       	ldd	r24, Y+2	; 0x02
    1842:	80 93 63 01 	sts	0x0163, r24	; 0x800163 <__TEXT_REGION_LENGTH__+0x7c0163>
    1846:	0f 90       	pop	r0
    1848:	0f 90       	pop	r0
    184a:	df 91       	pop	r29
    184c:	cf 91       	pop	r28
    184e:	08 95       	ret

00001850 <PHY_SetShortAddr>:
    1850:	cf 93       	push	r28
    1852:	df 93       	push	r29
    1854:	1f 92       	push	r1
    1856:	1f 92       	push	r1
    1858:	cd b7       	in	r28, 0x3d	; 61
    185a:	de b7       	in	r29, 0x3e	; 62
    185c:	9a 83       	std	Y+2, r25	; 0x02
    185e:	89 83       	std	Y+1, r24	; 0x01
    1860:	80 93 60 01 	sts	0x0160, r24	; 0x800160 <__TEXT_REGION_LENGTH__+0x7c0160>
    1864:	8a 81       	ldd	r24, Y+2	; 0x02
    1866:	80 93 61 01 	sts	0x0161, r24	; 0x800161 <__TEXT_REGION_LENGTH__+0x7c0161>
    186a:	99 81       	ldd	r25, Y+1	; 0x01
    186c:	8a 81       	ldd	r24, Y+2	; 0x02
    186e:	89 0f       	add	r24, r25
    1870:	80 93 6d 01 	sts	0x016D, r24	; 0x80016d <__TEXT_REGION_LENGTH__+0x7c016d>
    1874:	0f 90       	pop	r0
    1876:	0f 90       	pop	r0
    1878:	df 91       	pop	r29
    187a:	cf 91       	pop	r28
    187c:	08 95       	ret

0000187e <PHY_DataReq>:
}

/*************************************************************************//**
*****************************************************************************/
void PHY_DataReq(uint8_t *data, uint8_t size)
{
    187e:	1f 93       	push	r17
    1880:	cf 93       	push	r28
    1882:	df 93       	push	r29
    1884:	18 2f       	mov	r17, r24
    1886:	d9 2f       	mov	r29, r25
    1888:	c6 2f       	mov	r28, r22
  phyTrxSetState(TRX_CMD_TX_ARET_ON);
    188a:	89 e1       	ldi	r24, 0x19	; 25
    188c:	92 df       	rcall	.-220    	; 0x17b2 <phyTrxSetState>

  IRQ_STATUS_REG = IRQ_CLEAR_VALUE;
    188e:	8f ef       	ldi	r24, 0xFF	; 255
    1890:	80 93 4f 01 	sts	0x014F, r24	; 0x80014f <__TEXT_REGION_LENGTH__+0x7c014f>

  TRX_FRAME_BUFFER(0) = size + PHY_CRC_SIZE;
    1894:	82 e0       	ldi	r24, 0x02	; 2
    1896:	8c 0f       	add	r24, r28
    1898:	80 93 80 01 	sts	0x0180, r24	; 0x800180 <__TEXT_REGION_LENGTH__+0x7c0180>
  for (uint8_t i = 0; i < size; i++)
    189c:	cc 23       	and	r28, r28
    189e:	71 f0       	breq	.+28     	; 0x18bc <PHY_DataReq+0x3e>
    18a0:	a1 2f       	mov	r26, r17
    18a2:	bd 2f       	mov	r27, r29
    18a4:	c1 50       	subi	r28, 0x01	; 1
    18a6:	6c 2f       	mov	r22, r28
    18a8:	70 e0       	ldi	r23, 0x00	; 0
    18aa:	6e 57       	subi	r22, 0x7E	; 126
    18ac:	7e 4f       	sbci	r23, 0xFE	; 254
    18ae:	e1 e8       	ldi	r30, 0x81	; 129
    18b0:	f1 e0       	ldi	r31, 0x01	; 1
    TRX_FRAME_BUFFER(i+1) = data[i];
    18b2:	8d 91       	ld	r24, X+
    18b4:	81 93       	st	Z+, r24
  phyTrxSetState(TRX_CMD_TX_ARET_ON);

  IRQ_STATUS_REG = IRQ_CLEAR_VALUE;

  TRX_FRAME_BUFFER(0) = size + PHY_CRC_SIZE;
  for (uint8_t i = 0; i < size; i++)
    18b6:	e6 17       	cp	r30, r22
    18b8:	f7 07       	cpc	r31, r23
    18ba:	d9 f7       	brne	.-10     	; 0x18b2 <PHY_DataReq+0x34>
    TRX_FRAME_BUFFER(i+1) = data[i];

  phyState = PHY_STATE_TX_WAIT_END;
    18bc:	83 e0       	ldi	r24, 0x03	; 3
    18be:	80 93 f4 1f 	sts	0x1FF4, r24	; 0x801ff4 <phyState>
  TRX_STATE_REG = TRX_CMD_TX_START;
    18c2:	82 e0       	ldi	r24, 0x02	; 2
    18c4:	80 93 42 01 	sts	0x0142, r24	; 0x800142 <__TEXT_REGION_LENGTH__+0x7c0142>
}
    18c8:	df 91       	pop	r29
    18ca:	cf 91       	pop	r28
    18cc:	1f 91       	pop	r17
    18ce:	08 95       	ret

000018d0 <PHY_TaskHandler>:
}

/*************************************************************************//**
*****************************************************************************/
void PHY_TaskHandler(void)
{
    18d0:	1f 93       	push	r17
    18d2:	cf 93       	push	r28
    18d4:	df 93       	push	r29
    18d6:	00 d0       	rcall	.+0      	; 0x18d8 <PHY_TaskHandler+0x8>
    18d8:	1f 92       	push	r1
    18da:	1f 92       	push	r1
    18dc:	cd b7       	in	r28, 0x3d	; 61
    18de:	de b7       	in	r29, 0x3e	; 62
  if (PHY_STATE_SLEEP == phyState)
    18e0:	80 91 f4 1f 	lds	r24, 0x1FF4	; 0x801ff4 <phyState>
    18e4:	82 30       	cpi	r24, 0x02	; 2
    18e6:	09 f4       	brne	.+2      	; 0x18ea <PHY_TaskHandler+0x1a>
    18e8:	65 c0       	rjmp	.+202    	; 0x19b4 <PHY_TaskHandler+0xe4>
    return;

  if (IRQ_STATUS_REG_s.rxEnd)
    18ea:	80 91 4f 01 	lds	r24, 0x014F	; 0x80014f <__TEXT_REGION_LENGTH__+0x7c014f>
    18ee:	83 ff       	sbrs	r24, 3
    18f0:	3e c0       	rjmp	.+124    	; 0x196e <PHY_TaskHandler+0x9e>
  {
    PHY_DataInd_t ind;
    uint8_t size = TST_RX_LENGTH_REG;
    18f2:	a0 91 7b 01 	lds	r26, 0x017B	; 0x80017b <__TEXT_REGION_LENGTH__+0x7c017b>

    for (uint8_t i = 0; i < size + 1/*lqi*/; i++)
    18f6:	6a 2f       	mov	r22, r26
    18f8:	70 e0       	ldi	r23, 0x00	; 0
    18fa:	ab 01       	movw	r20, r22
    18fc:	4f 5f       	subi	r20, 0xFF	; 255
    18fe:	5f 4f       	sbci	r21, 0xFF	; 255
    1900:	80 e0       	ldi	r24, 0x00	; 0
    1902:	90 e0       	ldi	r25, 0x00	; 0
    1904:	20 e0       	ldi	r18, 0x00	; 0
      phyRxBuffer[i] = TRX_FRAME_BUFFER(i);
    1906:	fc 01       	movw	r30, r24
    1908:	e0 58       	subi	r30, 0x80	; 128
    190a:	fe 4f       	sbci	r31, 0xFE	; 254
    190c:	30 81       	ld	r19, Z
    190e:	fc 01       	movw	r30, r24
    1910:	ec 58       	subi	r30, 0x8C	; 140
    1912:	f0 4e       	sbci	r31, 0xE0	; 224
    1914:	30 83       	st	Z, r19
  if (IRQ_STATUS_REG_s.rxEnd)
  {
    PHY_DataInd_t ind;
    uint8_t size = TST_RX_LENGTH_REG;

    for (uint8_t i = 0; i < size + 1/*lqi*/; i++)
    1916:	2f 5f       	subi	r18, 0xFF	; 255
    1918:	82 2f       	mov	r24, r18
    191a:	90 e0       	ldi	r25, 0x00	; 0
    191c:	84 17       	cp	r24, r20
    191e:	95 07       	cpc	r25, r21
    1920:	94 f3       	brlt	.-28     	; 0x1906 <PHY_TaskHandler+0x36>
      phyRxBuffer[i] = TRX_FRAME_BUFFER(i);

    ind.data = phyRxBuffer;
    1922:	84 e7       	ldi	r24, 0x74	; 116
    1924:	9f e1       	ldi	r25, 0x1F	; 31
    1926:	9a 83       	std	Y+2, r25	; 0x02
    1928:	89 83       	std	Y+1, r24	; 0x01
    ind.size = size - PHY_CRC_SIZE;
    192a:	a2 50       	subi	r26, 0x02	; 2
    192c:	ab 83       	std	Y+3, r26	; 0x03
    ind.lqi  = phyRxBuffer[size];
    192e:	fb 01       	movw	r30, r22
    1930:	ec 58       	subi	r30, 0x8C	; 140
    1932:	f0 4e       	sbci	r31, 0xE0	; 224
    1934:	80 81       	ld	r24, Z
    1936:	8c 83       	std	Y+4, r24	; 0x04
    ind.rssi = (int8_t)PHY_ED_LEVEL_REG + PHY_RSSI_BASE_VAL;
    1938:	80 91 47 01 	lds	r24, 0x0147	; 0x800147 <__TEXT_REGION_LENGTH__+0x7c0147>
    193c:	8a 55       	subi	r24, 0x5A	; 90
    193e:	8d 83       	std	Y+5, r24	; 0x05
    PHY_DataInd(&ind);
    1940:	ce 01       	movw	r24, r28
    1942:	01 96       	adiw	r24, 0x01	; 1
    1944:	bd da       	rcall	.-2694   	; 0xec0 <PHY_DataInd>

    while (TRX_STATUS_RX_AACK_ON != TRX_STATUS_REG_s.trxStatus);
    1946:	e1 e4       	ldi	r30, 0x41	; 65
    1948:	f1 e0       	ldi	r31, 0x01	; 1
    194a:	80 81       	ld	r24, Z
    194c:	8f 71       	andi	r24, 0x1F	; 31
    194e:	86 31       	cpi	r24, 0x16	; 22
    1950:	e1 f7       	brne	.-8      	; 0x194a <PHY_TaskHandler+0x7a>

    IRQ_STATUS_REG_s.rxEnd = 1;
    1952:	ef e4       	ldi	r30, 0x4F	; 79
    1954:	f1 e0       	ldi	r31, 0x01	; 1
    1956:	80 81       	ld	r24, Z
    1958:	88 60       	ori	r24, 0x08	; 8
    195a:	80 83       	st	Z, r24
    TRX_CTRL_2_REG_s.rxSafeMode = 0;
    195c:	ec e4       	ldi	r30, 0x4C	; 76
    195e:	f1 e0       	ldi	r31, 0x01	; 1
    1960:	80 81       	ld	r24, Z
    1962:	8f 77       	andi	r24, 0x7F	; 127
    1964:	80 83       	st	Z, r24
    TRX_CTRL_2_REG_s.rxSafeMode = 1;
    1966:	80 81       	ld	r24, Z
    1968:	80 68       	ori	r24, 0x80	; 128
    196a:	80 83       	st	Z, r24
    196c:	23 c0       	rjmp	.+70     	; 0x19b4 <PHY_TaskHandler+0xe4>
  }

  else if (IRQ_STATUS_REG_s.txEnd)
    196e:	80 91 4f 01 	lds	r24, 0x014F	; 0x80014f <__TEXT_REGION_LENGTH__+0x7c014f>
    1972:	86 ff       	sbrs	r24, 6
    1974:	1f c0       	rjmp	.+62     	; 0x19b4 <PHY_TaskHandler+0xe4>
  {
    if (TRX_STATUS_TX_ARET_ON == TRX_STATUS_REG_s.trxStatus)
    1976:	80 91 41 01 	lds	r24, 0x0141	; 0x800141 <__TEXT_REGION_LENGTH__+0x7c0141>
    197a:	8f 71       	andi	r24, 0x1F	; 31
    197c:	89 31       	cpi	r24, 0x19	; 25
    197e:	a9 f4       	brne	.+42     	; 0x19aa <PHY_TaskHandler+0xda>
    {
      uint8_t status = TRX_STATE_REG_s.tracStatus;
    1980:	10 91 42 01 	lds	r17, 0x0142	; 0x800142 <__TEXT_REGION_LENGTH__+0x7c0142>
    1984:	12 95       	swap	r17
    1986:	16 95       	lsr	r17
    1988:	17 70       	andi	r17, 0x07	; 7

      if (TRAC_STATUS_SUCCESS == status)
    198a:	49 f0       	breq	.+18     	; 0x199e <PHY_TaskHandler+0xce>
        status = PHY_STATUS_SUCCESS;
      else if (TRAC_STATUS_CHANNEL_ACCESS_FAILURE == status)
    198c:	13 30       	cpi	r17, 0x03	; 3
    198e:	21 f0       	breq	.+8      	; 0x1998 <PHY_TaskHandler+0xc8>
        status = PHY_STATUS_CHANNEL_ACCESS_FAILURE;
      else if (TRAC_STATUS_NO_ACK == status)
    1990:	15 30       	cpi	r17, 0x05	; 5
    1992:	21 f0       	breq	.+8      	; 0x199c <PHY_TaskHandler+0xcc>
        status = PHY_STATUS_NO_ACK;
      else
        status = PHY_STATUS_ERROR;
    1994:	13 e0       	ldi	r17, 0x03	; 3
    1996:	03 c0       	rjmp	.+6      	; 0x199e <PHY_TaskHandler+0xce>
      uint8_t status = TRX_STATE_REG_s.tracStatus;

      if (TRAC_STATUS_SUCCESS == status)
        status = PHY_STATUS_SUCCESS;
      else if (TRAC_STATUS_CHANNEL_ACCESS_FAILURE == status)
        status = PHY_STATUS_CHANNEL_ACCESS_FAILURE;
    1998:	11 e0       	ldi	r17, 0x01	; 1
    199a:	01 c0       	rjmp	.+2      	; 0x199e <PHY_TaskHandler+0xce>
      else if (TRAC_STATUS_NO_ACK == status)
        status = PHY_STATUS_NO_ACK;
      else
        status = PHY_STATUS_ERROR;

      phySetRxState();
    199c:	12 e0       	ldi	r17, 0x02	; 2
    199e:	1b df       	rcall	.-458    	; 0x17d6 <phySetRxState>
      phyState = PHY_STATE_IDLE;
    19a0:	81 e0       	ldi	r24, 0x01	; 1
    19a2:	80 93 f4 1f 	sts	0x1FF4, r24	; 0x801ff4 <phyState>

      PHY_DataConf(status);
    19a6:	81 2f       	mov	r24, r17
    19a8:	28 de       	rcall	.-944    	; 0x15fa <PHY_DataConf>
    }

    IRQ_STATUS_REG_s.txEnd = 1;
    19aa:	ef e4       	ldi	r30, 0x4F	; 79
    19ac:	f1 e0       	ldi	r31, 0x01	; 1
    19ae:	80 81       	ld	r24, Z
    19b0:	80 64       	ori	r24, 0x40	; 64
    19b2:	80 83       	st	Z, r24
  }
}
    19b4:	0f 90       	pop	r0
    19b6:	0f 90       	pop	r0
    19b8:	0f 90       	pop	r0
    19ba:	0f 90       	pop	r0
    19bc:	0f 90       	pop	r0
    19be:	df 91       	pop	r29
    19c0:	cf 91       	pop	r28
    19c2:	1f 91       	pop	r17
    19c4:	08 95       	ret

000019c6 <SYS_Init>:

/*************************************************************************//**
*****************************************************************************/
void SYS_Init(void)
{
  HAL_Init();
    19c6:	0e 94 47 02 	call	0x48e	; 0x48e <HAL_Init>
  SYS_TimerInit();
    19ca:	6d d0       	rcall	.+218    	; 0x1aa6 <SYS_TimerInit>
  PHY_Init();
    19cc:	10 df       	rcall	.-480    	; 0x17ee <PHY_Init>
    19ce:	0c 94 d0 03 	jmp	0x7a0	; 0x7a0 <NWK_Init>
  NWK_Init();
    19d2:	08 95       	ret

000019d4 <SYS_TaskHandler>:
    19d4:	7d df       	rcall	.-262    	; 0x18d0 <PHY_TaskHandler>
/*************************************************************************//**
*****************************************************************************/
void SYS_TaskHandler(void)
{
  PHY_TaskHandler();
  NWK_TaskHandler();
    19d6:	0e 94 fe 03 	call	0x7fc	; 0x7fc <NWK_TaskHandler>
  SYS_TimerTaskHandler();
    19da:	8f c0       	rjmp	.+286    	; 0x1afa <SYS_TimerTaskHandler>
    19dc:	08 95       	ret

000019de <placeTimer>:
    19de:	0f 93       	push	r16
    19e0:	1f 93       	push	r17
    19e2:	cf 93       	push	r28
    19e4:	df 93       	push	r29
    19e6:	ec 01       	movw	r28, r24
    19e8:	80 91 f5 1f 	lds	r24, 0x1FF5	; 0x801ff5 <timers>
    19ec:	90 91 f6 1f 	lds	r25, 0x1FF6	; 0x801ff6 <timers+0x1>
    19f0:	00 97       	sbiw	r24, 0x00	; 0
    19f2:	09 f4       	brne	.+2      	; 0x19f6 <placeTimer+0x18>
    19f4:	45 c0       	rjmp	.+138    	; 0x1a80 <placeTimer+0xa2>
    19f6:	4e 81       	ldd	r20, Y+6	; 0x06
    19f8:	5f 81       	ldd	r21, Y+7	; 0x07
    19fa:	68 85       	ldd	r22, Y+8	; 0x08
    19fc:	79 85       	ldd	r23, Y+9	; 0x09
    19fe:	fc 01       	movw	r30, r24
    1a00:	02 81       	ldd	r16, Z+2	; 0x02
    1a02:	13 81       	ldd	r17, Z+3	; 0x03
    1a04:	24 81       	ldd	r18, Z+4	; 0x04
    1a06:	35 81       	ldd	r19, Z+5	; 0x05
    1a08:	40 17       	cp	r20, r16
    1a0a:	51 07       	cpc	r21, r17
    1a0c:	62 07       	cpc	r22, r18
    1a0e:	73 07       	cpc	r23, r19
    1a10:	60 f0       	brcs	.+24     	; 0x1a2a <placeTimer+0x4c>
    1a12:	dc 01       	movw	r26, r24
    1a14:	17 c0       	rjmp	.+46     	; 0x1a44 <placeTimer+0x66>
    1a16:	02 81       	ldd	r16, Z+2	; 0x02
    1a18:	13 81       	ldd	r17, Z+3	; 0x03
    1a1a:	24 81       	ldd	r18, Z+4	; 0x04
    1a1c:	35 81       	ldd	r19, Z+5	; 0x05
    1a1e:	40 17       	cp	r20, r16
    1a20:	51 07       	cpc	r21, r17
    1a22:	62 07       	cpc	r22, r18
    1a24:	73 07       	cpc	r23, r19
    1a26:	68 f4       	brcc	.+26     	; 0x1a42 <placeTimer+0x64>
    1a28:	03 c0       	rjmp	.+6      	; 0x1a30 <placeTimer+0x52>
    1a2a:	fc 01       	movw	r30, r24
    1a2c:	a0 e0       	ldi	r26, 0x00	; 0
    1a2e:	b0 e0       	ldi	r27, 0x00	; 0
    1a30:	04 1b       	sub	r16, r20
    1a32:	15 0b       	sbc	r17, r21
    1a34:	26 0b       	sbc	r18, r22
    1a36:	37 0b       	sbc	r19, r23
    1a38:	02 83       	std	Z+2, r16	; 0x02
    1a3a:	13 83       	std	Z+3, r17	; 0x03
    1a3c:	24 83       	std	Z+4, r18	; 0x04
    1a3e:	35 83       	std	Z+5, r19	; 0x05
    1a40:	0a c0       	rjmp	.+20     	; 0x1a56 <placeTimer+0x78>
    1a42:	df 01       	movw	r26, r30
    1a44:	40 1b       	sub	r20, r16
    1a46:	51 0b       	sbc	r21, r17
    1a48:	62 0b       	sbc	r22, r18
    1a4a:	73 0b       	sbc	r23, r19
    1a4c:	ed 91       	ld	r30, X+
    1a4e:	fc 91       	ld	r31, X
    1a50:	11 97       	sbiw	r26, 0x01	; 1
    1a52:	30 97       	sbiw	r30, 0x00	; 0
    1a54:	01 f7       	brne	.-64     	; 0x1a16 <placeTimer+0x38>
    1a56:	4a 83       	std	Y+2, r20	; 0x02
    1a58:	5b 83       	std	Y+3, r21	; 0x03
    1a5a:	6c 83       	std	Y+4, r22	; 0x04
    1a5c:	7d 83       	std	Y+5, r23	; 0x05
    1a5e:	10 97       	sbiw	r26, 0x00	; 0
    1a60:	41 f0       	breq	.+16     	; 0x1a72 <placeTimer+0x94>
    1a62:	8d 91       	ld	r24, X+
    1a64:	9c 91       	ld	r25, X
    1a66:	11 97       	sbiw	r26, 0x01	; 1
    1a68:	99 83       	std	Y+1, r25	; 0x01
    1a6a:	88 83       	st	Y, r24
    1a6c:	cd 93       	st	X+, r28
    1a6e:	dc 93       	st	X, r29
    1a70:	15 c0       	rjmp	.+42     	; 0x1a9c <placeTimer+0xbe>
    1a72:	99 83       	std	Y+1, r25	; 0x01
    1a74:	88 83       	st	Y, r24
    1a76:	d0 93 f6 1f 	sts	0x1FF6, r29	; 0x801ff6 <timers+0x1>
    1a7a:	c0 93 f5 1f 	sts	0x1FF5, r28	; 0x801ff5 <timers>
    1a7e:	0e c0       	rjmp	.+28     	; 0x1a9c <placeTimer+0xbe>
    1a80:	19 82       	std	Y+1, r1	; 0x01
    1a82:	18 82       	st	Y, r1
    1a84:	8e 81       	ldd	r24, Y+6	; 0x06
    1a86:	9f 81       	ldd	r25, Y+7	; 0x07
    1a88:	a8 85       	ldd	r26, Y+8	; 0x08
    1a8a:	b9 85       	ldd	r27, Y+9	; 0x09
    1a8c:	8a 83       	std	Y+2, r24	; 0x02
    1a8e:	9b 83       	std	Y+3, r25	; 0x03
    1a90:	ac 83       	std	Y+4, r26	; 0x04
    1a92:	bd 83       	std	Y+5, r27	; 0x05
    1a94:	d0 93 f6 1f 	sts	0x1FF6, r29	; 0x801ff6 <timers+0x1>
    1a98:	c0 93 f5 1f 	sts	0x1FF5, r28	; 0x801ff5 <timers>
    1a9c:	df 91       	pop	r29
    1a9e:	cf 91       	pop	r28
    1aa0:	1f 91       	pop	r17
    1aa2:	0f 91       	pop	r16
    1aa4:	08 95       	ret

00001aa6 <SYS_TimerInit>:
    1aa6:	10 92 f6 1f 	sts	0x1FF6, r1	; 0x801ff6 <timers+0x1>
    1aaa:	10 92 f5 1f 	sts	0x1FF5, r1	; 0x801ff5 <timers>
    1aae:	08 95       	ret

00001ab0 <SYS_TimerStarted>:
    1ab0:	e0 91 f5 1f 	lds	r30, 0x1FF5	; 0x801ff5 <timers>
    1ab4:	f0 91 f6 1f 	lds	r31, 0x1FF6	; 0x801ff6 <timers+0x1>
    1ab8:	30 97       	sbiw	r30, 0x00	; 0
    1aba:	71 f0       	breq	.+28     	; 0x1ad8 <SYS_TimerStarted+0x28>
    1abc:	e8 17       	cp	r30, r24
    1abe:	f9 07       	cpc	r31, r25
    1ac0:	21 f4       	brne	.+8      	; 0x1aca <SYS_TimerStarted+0x1a>
    1ac2:	0c c0       	rjmp	.+24     	; 0x1adc <SYS_TimerStarted+0x2c>
    1ac4:	8e 17       	cp	r24, r30
    1ac6:	9f 07       	cpc	r25, r31
    1ac8:	59 f0       	breq	.+22     	; 0x1ae0 <SYS_TimerStarted+0x30>
    1aca:	01 90       	ld	r0, Z+
    1acc:	f0 81       	ld	r31, Z
    1ace:	e0 2d       	mov	r30, r0
    1ad0:	30 97       	sbiw	r30, 0x00	; 0
    1ad2:	c1 f7       	brne	.-16     	; 0x1ac4 <SYS_TimerStarted+0x14>
    1ad4:	80 e0       	ldi	r24, 0x00	; 0
    1ad6:	08 95       	ret
    1ad8:	80 e0       	ldi	r24, 0x00	; 0
    1ada:	08 95       	ret
    1adc:	81 e0       	ldi	r24, 0x01	; 1
    1ade:	08 95       	ret
    1ae0:	81 e0       	ldi	r24, 0x01	; 1
    1ae2:	08 95       	ret

00001ae4 <SYS_TimerStart>:
    1ae4:	cf 93       	push	r28
    1ae6:	df 93       	push	r29
    1ae8:	ec 01       	movw	r28, r24
    1aea:	e2 df       	rcall	.-60     	; 0x1ab0 <SYS_TimerStarted>
    1aec:	81 11       	cpse	r24, r1
    1aee:	02 c0       	rjmp	.+4      	; 0x1af4 <SYS_TimerStart+0x10>
    1af0:	ce 01       	movw	r24, r28
    1af2:	75 df       	rcall	.-278    	; 0x19de <placeTimer>
    1af4:	df 91       	pop	r29
    1af6:	cf 91       	pop	r28
    1af8:	08 95       	ret

00001afa <SYS_TimerTaskHandler>:
    1afa:	cf 92       	push	r12
    1afc:	df 92       	push	r13
    1afe:	ef 92       	push	r14
    1b00:	ff 92       	push	r15
    1b02:	cf 93       	push	r28
    1b04:	df 93       	push	r29
    1b06:	80 91 f7 1f 	lds	r24, 0x1FF7	; 0x801ff7 <halTimerIrqCount>
    1b0a:	88 23       	and	r24, r24
    1b0c:	09 f4       	brne	.+2      	; 0x1b10 <SYS_TimerTaskHandler+0x16>
    1b0e:	59 c0       	rjmp	.+178    	; 0x1bc2 <SYS_TimerTaskHandler+0xc8>
    1b10:	8f b7       	in	r24, 0x3f	; 63
    1b12:	f8 94       	cli
    1b14:	c0 90 f7 1f 	lds	r12, 0x1FF7	; 0x801ff7 <halTimerIrqCount>
    1b18:	10 92 f7 1f 	sts	0x1FF7, r1	; 0x801ff7 <halTimerIrqCount>
    1b1c:	8f bf       	out	0x3f, r24	; 63
    1b1e:	d1 2c       	mov	r13, r1
    1b20:	e1 2c       	mov	r14, r1
    1b22:	f1 2c       	mov	r15, r1
    1b24:	cc 0c       	add	r12, r12
    1b26:	dd 1c       	adc	r13, r13
    1b28:	ee 1c       	adc	r14, r14
    1b2a:	ff 1c       	adc	r15, r15
    1b2c:	d7 01       	movw	r26, r14
    1b2e:	c6 01       	movw	r24, r12
    1b30:	88 0f       	add	r24, r24
    1b32:	99 1f       	adc	r25, r25
    1b34:	aa 1f       	adc	r26, r26
    1b36:	bb 1f       	adc	r27, r27
    1b38:	88 0f       	add	r24, r24
    1b3a:	99 1f       	adc	r25, r25
    1b3c:	aa 1f       	adc	r26, r26
    1b3e:	bb 1f       	adc	r27, r27
    1b40:	c8 0e       	add	r12, r24
    1b42:	d9 1e       	adc	r13, r25
    1b44:	ea 1e       	adc	r14, r26
    1b46:	fb 1e       	adc	r15, r27
    1b48:	c0 91 f5 1f 	lds	r28, 0x1FF5	; 0x801ff5 <timers>
    1b4c:	d0 91 f6 1f 	lds	r29, 0x1FF6	; 0x801ff6 <timers+0x1>
    1b50:	20 97       	sbiw	r28, 0x00	; 0
    1b52:	b9 f1       	breq	.+110    	; 0x1bc2 <SYS_TimerTaskHandler+0xc8>
    1b54:	8a 81       	ldd	r24, Y+2	; 0x02
    1b56:	9b 81       	ldd	r25, Y+3	; 0x03
    1b58:	ac 81       	ldd	r26, Y+4	; 0x04
    1b5a:	bd 81       	ldd	r27, Y+5	; 0x05
    1b5c:	c8 16       	cp	r12, r24
    1b5e:	d9 06       	cpc	r13, r25
    1b60:	ea 06       	cpc	r14, r26
    1b62:	fb 06       	cpc	r15, r27
    1b64:	10 f1       	brcs	.+68     	; 0x1baa <SYS_TimerTaskHandler+0xb0>
    1b66:	c8 1a       	sub	r12, r24
    1b68:	d9 0a       	sbc	r13, r25
    1b6a:	ea 0a       	sbc	r14, r26
    1b6c:	fb 0a       	sbc	r15, r27
    1b6e:	88 81       	ld	r24, Y
    1b70:	99 81       	ldd	r25, Y+1	; 0x01
    1b72:	90 93 f6 1f 	sts	0x1FF6, r25	; 0x801ff6 <timers+0x1>
    1b76:	80 93 f5 1f 	sts	0x1FF5, r24	; 0x801ff5 <timers>
    1b7a:	8a 85       	ldd	r24, Y+10	; 0x0a
    1b7c:	81 30       	cpi	r24, 0x01	; 1
    1b7e:	11 f4       	brne	.+4      	; 0x1b84 <SYS_TimerTaskHandler+0x8a>
    1b80:	ce 01       	movw	r24, r28
    1b82:	2d df       	rcall	.-422    	; 0x19de <placeTimer>
    1b84:	eb 85       	ldd	r30, Y+11	; 0x0b
    1b86:	fc 85       	ldd	r31, Y+12	; 0x0c
    1b88:	ce 01       	movw	r24, r28
    1b8a:	19 95       	eicall
    1b8c:	c0 91 f5 1f 	lds	r28, 0x1FF5	; 0x801ff5 <timers>
    1b90:	d0 91 f6 1f 	lds	r29, 0x1FF6	; 0x801ff6 <timers+0x1>
    1b94:	20 97       	sbiw	r28, 0x00	; 0
    1b96:	a9 f0       	breq	.+42     	; 0x1bc2 <SYS_TimerTaskHandler+0xc8>
    1b98:	8a 81       	ldd	r24, Y+2	; 0x02
    1b9a:	9b 81       	ldd	r25, Y+3	; 0x03
    1b9c:	ac 81       	ldd	r26, Y+4	; 0x04
    1b9e:	bd 81       	ldd	r27, Y+5	; 0x05
    1ba0:	c8 16       	cp	r12, r24
    1ba2:	d9 06       	cpc	r13, r25
    1ba4:	ea 06       	cpc	r14, r26
    1ba6:	fb 06       	cpc	r15, r27
    1ba8:	f0 f6       	brcc	.-68     	; 0x1b66 <SYS_TimerTaskHandler+0x6c>
    1baa:	8a 81       	ldd	r24, Y+2	; 0x02
    1bac:	9b 81       	ldd	r25, Y+3	; 0x03
    1bae:	ac 81       	ldd	r26, Y+4	; 0x04
    1bb0:	bd 81       	ldd	r27, Y+5	; 0x05
    1bb2:	8c 19       	sub	r24, r12
    1bb4:	9d 09       	sbc	r25, r13
    1bb6:	ae 09       	sbc	r26, r14
    1bb8:	bf 09       	sbc	r27, r15
    1bba:	8a 83       	std	Y+2, r24	; 0x02
    1bbc:	9b 83       	std	Y+3, r25	; 0x03
    1bbe:	ac 83       	std	Y+4, r26	; 0x04
    1bc0:	bd 83       	std	Y+5, r27	; 0x05
    1bc2:	df 91       	pop	r29
    1bc4:	cf 91       	pop	r28
    1bc6:	ff 90       	pop	r15
    1bc8:	ef 90       	pop	r14
    1bca:	df 90       	pop	r13
    1bcc:	cf 90       	pop	r12
    1bce:	08 95       	ret

00001bd0 <__udivmodsi4>:
    1bd0:	a1 e2       	ldi	r26, 0x21	; 33
    1bd2:	1a 2e       	mov	r1, r26
    1bd4:	aa 1b       	sub	r26, r26
    1bd6:	bb 1b       	sub	r27, r27
    1bd8:	fd 01       	movw	r30, r26
    1bda:	0d c0       	rjmp	.+26     	; 0x1bf6 <__udivmodsi4_ep>

00001bdc <__udivmodsi4_loop>:
    1bdc:	aa 1f       	adc	r26, r26
    1bde:	bb 1f       	adc	r27, r27
    1be0:	ee 1f       	adc	r30, r30
    1be2:	ff 1f       	adc	r31, r31
    1be4:	a2 17       	cp	r26, r18
    1be6:	b3 07       	cpc	r27, r19
    1be8:	e4 07       	cpc	r30, r20
    1bea:	f5 07       	cpc	r31, r21
    1bec:	20 f0       	brcs	.+8      	; 0x1bf6 <__udivmodsi4_ep>
    1bee:	a2 1b       	sub	r26, r18
    1bf0:	b3 0b       	sbc	r27, r19
    1bf2:	e4 0b       	sbc	r30, r20
    1bf4:	f5 0b       	sbc	r31, r21

00001bf6 <__udivmodsi4_ep>:
    1bf6:	66 1f       	adc	r22, r22
    1bf8:	77 1f       	adc	r23, r23
    1bfa:	88 1f       	adc	r24, r24
    1bfc:	99 1f       	adc	r25, r25
    1bfe:	1a 94       	dec	r1
    1c00:	69 f7       	brne	.-38     	; 0x1bdc <__udivmodsi4_loop>
    1c02:	60 95       	com	r22
    1c04:	70 95       	com	r23
    1c06:	80 95       	com	r24
    1c08:	90 95       	com	r25
    1c0a:	9b 01       	movw	r18, r22
    1c0c:	ac 01       	movw	r20, r24
    1c0e:	bd 01       	movw	r22, r26
    1c10:	cf 01       	movw	r24, r30
    1c12:	08 95       	ret

00001c14 <__tablejump2__>:
    1c14:	ee 0f       	add	r30, r30
    1c16:	ff 1f       	adc	r31, r31
    1c18:	88 1f       	adc	r24, r24
    1c1a:	8b bf       	out	0x3b, r24	; 59
    1c1c:	07 90       	elpm	r0, Z+
    1c1e:	f6 91       	elpm	r31, Z
    1c20:	e0 2d       	mov	r30, r0
    1c22:	19 94       	eijmp

00001c24 <do_rand>:
    1c24:	8f 92       	push	r8
    1c26:	9f 92       	push	r9
    1c28:	af 92       	push	r10
    1c2a:	bf 92       	push	r11
    1c2c:	cf 92       	push	r12
    1c2e:	df 92       	push	r13
    1c30:	ef 92       	push	r14
    1c32:	ff 92       	push	r15
    1c34:	cf 93       	push	r28
    1c36:	df 93       	push	r29
    1c38:	ec 01       	movw	r28, r24
    1c3a:	68 81       	ld	r22, Y
    1c3c:	79 81       	ldd	r23, Y+1	; 0x01
    1c3e:	8a 81       	ldd	r24, Y+2	; 0x02
    1c40:	9b 81       	ldd	r25, Y+3	; 0x03
    1c42:	61 15       	cp	r22, r1
    1c44:	71 05       	cpc	r23, r1
    1c46:	81 05       	cpc	r24, r1
    1c48:	91 05       	cpc	r25, r1
    1c4a:	21 f4       	brne	.+8      	; 0x1c54 <do_rand+0x30>
    1c4c:	64 e2       	ldi	r22, 0x24	; 36
    1c4e:	79 ed       	ldi	r23, 0xD9	; 217
    1c50:	8b e5       	ldi	r24, 0x5B	; 91
    1c52:	97 e0       	ldi	r25, 0x07	; 7
    1c54:	2d e1       	ldi	r18, 0x1D	; 29
    1c56:	33 ef       	ldi	r19, 0xF3	; 243
    1c58:	41 e0       	ldi	r20, 0x01	; 1
    1c5a:	50 e0       	ldi	r21, 0x00	; 0
    1c5c:	41 d0       	rcall	.+130    	; 0x1ce0 <__divmodsi4>
    1c5e:	49 01       	movw	r8, r18
    1c60:	5a 01       	movw	r10, r20
    1c62:	9b 01       	movw	r18, r22
    1c64:	ac 01       	movw	r20, r24
    1c66:	a7 ea       	ldi	r26, 0xA7	; 167
    1c68:	b1 e4       	ldi	r27, 0x41	; 65
    1c6a:	56 d0       	rcall	.+172    	; 0x1d18 <__muluhisi3>
    1c6c:	6b 01       	movw	r12, r22
    1c6e:	7c 01       	movw	r14, r24
    1c70:	ac ee       	ldi	r26, 0xEC	; 236
    1c72:	b4 ef       	ldi	r27, 0xF4	; 244
    1c74:	a5 01       	movw	r20, r10
    1c76:	94 01       	movw	r18, r8
    1c78:	5b d0       	rcall	.+182    	; 0x1d30 <__mulohisi3>
    1c7a:	dc 01       	movw	r26, r24
    1c7c:	cb 01       	movw	r24, r22
    1c7e:	8c 0d       	add	r24, r12
    1c80:	9d 1d       	adc	r25, r13
    1c82:	ae 1d       	adc	r26, r14
    1c84:	bf 1d       	adc	r27, r15
    1c86:	b7 ff       	sbrs	r27, 7
    1c88:	03 c0       	rjmp	.+6      	; 0x1c90 <do_rand+0x6c>
    1c8a:	01 97       	sbiw	r24, 0x01	; 1
    1c8c:	a1 09       	sbc	r26, r1
    1c8e:	b0 48       	sbci	r27, 0x80	; 128
    1c90:	88 83       	st	Y, r24
    1c92:	99 83       	std	Y+1, r25	; 0x01
    1c94:	aa 83       	std	Y+2, r26	; 0x02
    1c96:	bb 83       	std	Y+3, r27	; 0x03
    1c98:	9f 77       	andi	r25, 0x7F	; 127
    1c9a:	df 91       	pop	r29
    1c9c:	cf 91       	pop	r28
    1c9e:	ff 90       	pop	r15
    1ca0:	ef 90       	pop	r14
    1ca2:	df 90       	pop	r13
    1ca4:	cf 90       	pop	r12
    1ca6:	bf 90       	pop	r11
    1ca8:	af 90       	pop	r10
    1caa:	9f 90       	pop	r9
    1cac:	8f 90       	pop	r8
    1cae:	08 95       	ret

00001cb0 <rand_r>:
    1cb0:	b9 cf       	rjmp	.-142    	; 0x1c24 <do_rand>

00001cb2 <rand>:
    1cb2:	80 e0       	ldi	r24, 0x00	; 0
    1cb4:	92 e0       	ldi	r25, 0x02	; 2
    1cb6:	b6 cf       	rjmp	.-148    	; 0x1c24 <do_rand>

00001cb8 <srand>:
    1cb8:	a0 e0       	ldi	r26, 0x00	; 0
    1cba:	b0 e0       	ldi	r27, 0x00	; 0
    1cbc:	80 93 00 02 	sts	0x0200, r24	; 0x800200 <__DATA_REGION_ORIGIN__>
    1cc0:	90 93 01 02 	sts	0x0201, r25	; 0x800201 <__DATA_REGION_ORIGIN__+0x1>
    1cc4:	a0 93 02 02 	sts	0x0202, r26	; 0x800202 <__DATA_REGION_ORIGIN__+0x2>
    1cc8:	b0 93 03 02 	sts	0x0203, r27	; 0x800203 <__DATA_REGION_ORIGIN__+0x3>
    1ccc:	08 95       	ret

00001cce <memcpy>:
    1cce:	fb 01       	movw	r30, r22
    1cd0:	dc 01       	movw	r26, r24
    1cd2:	02 c0       	rjmp	.+4      	; 0x1cd8 <memcpy+0xa>
    1cd4:	01 90       	ld	r0, Z+
    1cd6:	0d 92       	st	X+, r0
    1cd8:	41 50       	subi	r20, 0x01	; 1
    1cda:	50 40       	sbci	r21, 0x00	; 0
    1cdc:	d8 f7       	brcc	.-10     	; 0x1cd4 <memcpy+0x6>
    1cde:	08 95       	ret

00001ce0 <__divmodsi4>:
    1ce0:	05 2e       	mov	r0, r21
    1ce2:	97 fb       	bst	r25, 7
    1ce4:	16 f4       	brtc	.+4      	; 0x1cea <__divmodsi4+0xa>
    1ce6:	00 94       	com	r0
    1ce8:	0f d0       	rcall	.+30     	; 0x1d08 <__negsi2>
    1cea:	57 fd       	sbrc	r21, 7
    1cec:	05 d0       	rcall	.+10     	; 0x1cf8 <__divmodsi4_neg2>
    1cee:	70 df       	rcall	.-288    	; 0x1bd0 <__udivmodsi4>
    1cf0:	07 fc       	sbrc	r0, 7
    1cf2:	02 d0       	rcall	.+4      	; 0x1cf8 <__divmodsi4_neg2>
    1cf4:	46 f4       	brtc	.+16     	; 0x1d06 <__divmodsi4_exit>
    1cf6:	08 c0       	rjmp	.+16     	; 0x1d08 <__negsi2>

00001cf8 <__divmodsi4_neg2>:
    1cf8:	50 95       	com	r21
    1cfa:	40 95       	com	r20
    1cfc:	30 95       	com	r19
    1cfe:	21 95       	neg	r18
    1d00:	3f 4f       	sbci	r19, 0xFF	; 255
    1d02:	4f 4f       	sbci	r20, 0xFF	; 255
    1d04:	5f 4f       	sbci	r21, 0xFF	; 255

00001d06 <__divmodsi4_exit>:
    1d06:	08 95       	ret

00001d08 <__negsi2>:
    1d08:	90 95       	com	r25
    1d0a:	80 95       	com	r24
    1d0c:	70 95       	com	r23
    1d0e:	61 95       	neg	r22
    1d10:	7f 4f       	sbci	r23, 0xFF	; 255
    1d12:	8f 4f       	sbci	r24, 0xFF	; 255
    1d14:	9f 4f       	sbci	r25, 0xFF	; 255
    1d16:	08 95       	ret

00001d18 <__muluhisi3>:
    1d18:	0f d0       	rcall	.+30     	; 0x1d38 <__umulhisi3>
    1d1a:	a5 9f       	mul	r26, r21
    1d1c:	90 0d       	add	r25, r0
    1d1e:	b4 9f       	mul	r27, r20
    1d20:	90 0d       	add	r25, r0
    1d22:	a4 9f       	mul	r26, r20
    1d24:	80 0d       	add	r24, r0
    1d26:	91 1d       	adc	r25, r1
    1d28:	11 24       	eor	r1, r1
    1d2a:	08 95       	ret

00001d2c <__mulshisi3>:
    1d2c:	b7 ff       	sbrs	r27, 7
    1d2e:	f4 cf       	rjmp	.-24     	; 0x1d18 <__muluhisi3>

00001d30 <__mulohisi3>:
    1d30:	f3 df       	rcall	.-26     	; 0x1d18 <__muluhisi3>
    1d32:	82 1b       	sub	r24, r18
    1d34:	93 0b       	sbc	r25, r19
    1d36:	08 95       	ret

00001d38 <__umulhisi3>:
    1d38:	a2 9f       	mul	r26, r18
    1d3a:	b0 01       	movw	r22, r0
    1d3c:	b3 9f       	mul	r27, r19
    1d3e:	c0 01       	movw	r24, r0
    1d40:	a3 9f       	mul	r26, r19
    1d42:	70 0d       	add	r23, r0
    1d44:	81 1d       	adc	r24, r1
    1d46:	11 24       	eor	r1, r1
    1d48:	91 1d       	adc	r25, r1
    1d4a:	b2 9f       	mul	r27, r18
    1d4c:	70 0d       	add	r23, r0
    1d4e:	81 1d       	adc	r24, r1
    1d50:	11 24       	eor	r1, r1
    1d52:	91 1d       	adc	r25, r1
    1d54:	08 95       	ret

00001d56 <_exit>:
    1d56:	f8 94       	cli

00001d58 <__stop_program>:
    1d58:	ff cf       	rjmp	.-2      	; 0x1d58 <__stop_program>
